ARM GAS  D:\Windows\AppData\Local\Temp\ccMSE5zK.s 			page 1


   1              		.syntax unified
   2              		.cpu cortex-m3
   3              		.fpu softvfp
   4              		.eabi_attribute 20, 1
   5              		.eabi_attribute 21, 1
   6              		.eabi_attribute 23, 3
   7              		.eabi_attribute 24, 1
   8              		.eabi_attribute 25, 1
   9              		.eabi_attribute 26, 1
  10              		.eabi_attribute 30, 6
  11              		.eabi_attribute 34, 1
  12              		.eabi_attribute 18, 4
  13              		.thumb
  14              		.file	"can_manager.c"
  15              		.text
  16              	.Ltext0:
  17              		.cfi_sections	.debug_frame
  18              		.comm	LOGGER_HEARTBEAT,16,4
  19              		.comm	DASH,16,4
  20              		.comm	CURTIS_DEBUG,16,4
  21              		.comm	CURTIS_STATUS,16,4
  22              		.comm	CURTIS_RCVACK,16,4
  23              		.comm	CURTIS_RCV,16,4
  24              		.comm	CURTIS_VOLTAGE,16,4
  25              		.comm	THROTTLE,16,4
  26              		.comm	BRAKE,16,4
  27              		.comm	BMS_STATUS,16,4
  28              		.comm	BMS_VOLTAGE,16,4
  29              		.comm	BMS_TEMP,16,4
  30              		.comm	LGR_HB,12,4
  31              		.comm	data,8,4
  32              		.section	.text.car_state_interrupt,"ax",%progbits
  33              		.align	2
  34              		.global	car_state_interrupt
  35              		.thumb
  36              		.thumb_func
  37              		.type	car_state_interrupt, %function
  38              	car_state_interrupt:
  39              	.LFB63:
  40              		.file 1 "can_manager.c"
   1:can_manager.c **** #include "can_manager.h"
   2:can_manager.c **** #include "sd_manager.h"
   3:can_manager.c **** 
   4:can_manager.c **** #define LOGGER_HEARTBEAT_ID	0x223
   5:can_manager.c **** #define DASH_ID				0x626
   6:can_manager.c **** #define CURTIS_DEBUG_ID		0x466
   7:can_manager.c **** #define CURTIS_STATUS_ID	0x566
   8:can_manager.c **** #define CURTIS_RCVACK_ID	0x666
   9:can_manager.c **** #define CURTIS_RCV_ID		0x766
  10:can_manager.c **** #define CURTIS_VOLTAGE_ID	0x866
  11:can_manager.c **** #define THROTTLE_ID			0x200
  12:can_manager.c **** #define BRAKE_ID			0x201
  13:can_manager.c **** #define BMS_STATUS_ID 		0x188
  14:can_manager.c **** #define BMS_VOLTAGE_ID		0x388
  15:can_manager.c **** #define BMS_TEMP_ID			0x488
  16:can_manager.c **** 
  17:can_manager.c **** DataPacket LOGGER_HEARTBEAT;//0x223
ARM GAS  D:\Windows\AppData\Local\Temp\ccMSE5zK.s 			page 2


  18:can_manager.c **** DataPacket DASH;			//0x0626
  19:can_manager.c **** DataPacket CURTIS_DEBUG;	//0x466
  20:can_manager.c **** DataPacket CURTIS_STATUS;	//0x566
  21:can_manager.c **** DataPacket CURTIS_RCVACK;	//0x666
  22:can_manager.c **** DataPacket CURTIS_RCV;		//0x766
  23:can_manager.c **** DataPacket CURTIS_VOLTAGE;	//0x866
  24:can_manager.c **** DataPacket THROTTLE;		//0x200
  25:can_manager.c **** DataPacket BRAKE;			//0x201
  26:can_manager.c **** DataPacket BMS_STATUS;		//0x188
  27:can_manager.c **** DataPacket BMS_VOLTAGE;		//0x388
  28:can_manager.c **** DataPacket BMS_TEMP;		//0x488
  29:can_manager.c **** 
  30:can_manager.c **** CAN_1_TX_MSG LGR_HB;		//0x223
  31:can_manager.c **** CAN_1_DATA_BYTES_MSG data;
  32:can_manager.c **** 
  33:can_manager.c **** CY_ISR(car_state_interrupt) {	//will send out every second
  41              		.loc 1 33 0
  42              		.cfi_startproc
  43              		@ args = 0, pretend = 0, frame = 0
  44              		@ frame_needed = 1, uses_anonymous_args = 0
  45 0000 80B5     		push	{r7, lr}
  46              		.cfi_def_cfa_offset 8
  47              		.cfi_offset 7, -8
  48              		.cfi_offset 14, -4
  49 0002 00AF     		add	r7, sp, #0
  50              		.cfi_def_cfa_register 7
  34:can_manager.c **** 	DASH.millicounter = millis_timer_ReadCounter();
  51              		.loc 1 34 0
  52 0004 FFF7FEFF 		bl	millis_timer_ReadCounter
  53 0008 0246     		mov	r2, r0
  54 000a 064B     		ldr	r3, .L2
  55 000c 1A60     		str	r2, [r3]
  35:can_manager.c **** 	BMS_STATUS.millicounter = millis_timer_ReadCounter();
  56              		.loc 1 35 0
  57 000e FFF7FEFF 		bl	millis_timer_ReadCounter
  58 0012 0246     		mov	r2, r0
  59 0014 044B     		ldr	r3, .L2+4
  60 0016 1A60     		str	r2, [r3]
  36:can_manager.c **** 	BMS_TEMP.millicounter = millis_timer_ReadCounter();
  61              		.loc 1 36 0
  62 0018 FFF7FEFF 		bl	millis_timer_ReadCounter
  63 001c 0246     		mov	r2, r0
  64 001e 034B     		ldr	r3, .L2+8
  65 0020 1A60     		str	r2, [r3]
  37:can_manager.c **** 	//sd_buffer(&DASH);
  38:can_manager.c **** 	//sd_buffer(&BMS_STATUS);
  39:can_manager.c **** 	//sd_buffer(&BMS_TEMP);
  40:can_manager.c **** }
  66              		.loc 1 40 0
  67 0022 80BD     		pop	{r7, pc}
  68              	.L3:
  69              		.align	2
  70              	.L2:
  71 0024 00000000 		.word	DASH
  72 0028 00000000 		.word	BMS_STATUS
  73 002c 00000000 		.word	BMS_TEMP
  74              		.cfi_endproc
ARM GAS  D:\Windows\AppData\Local\Temp\ccMSE5zK.s 			page 3


  75              	.LFE63:
  76              		.size	car_state_interrupt, .-car_state_interrupt
  77              		.section	.text.heartbeat_interrupt,"ax",%progbits
  78              		.align	2
  79              		.global	heartbeat_interrupt
  80              		.thumb
  81              		.thumb_func
  82              		.type	heartbeat_interrupt, %function
  83              	heartbeat_interrupt:
  84              	.LFB64:
  41:can_manager.c **** CY_ISR(heartbeat_interrupt) {
  85              		.loc 1 41 0
  86              		.cfi_startproc
  87              		@ args = 0, pretend = 0, frame = 8
  88              		@ frame_needed = 1, uses_anonymous_args = 0
  89 0000 80B5     		push	{r7, lr}
  90              		.cfi_def_cfa_offset 8
  91              		.cfi_offset 7, -8
  92              		.cfi_offset 14, -4
  93 0002 82B0     		sub	sp, sp, #8
  94              		.cfi_def_cfa_offset 16
  95 0004 00AF     		add	r7, sp, #0
  96              		.cfi_def_cfa_register 7
  42:can_manager.c **** 	LOGGER_HEARTBEAT.millicounter = millis_timer_ReadCounter();
  97              		.loc 1 42 0
  98 0006 FFF7FEFF 		bl	millis_timer_ReadCounter
  99 000a 0246     		mov	r2, r0
 100 000c 044B     		ldr	r3, .L5
 101 000e 1A60     		str	r2, [r3]
  43:can_manager.c **** 	DataPacket * LOGGER_HEARTBEAT_ptr = &LOGGER_HEARTBEAT;
 102              		.loc 1 43 0
 103 0010 034B     		ldr	r3, .L5
 104 0012 7B60     		str	r3, [r7, #4]
  44:can_manager.c **** 	CAN_1_SendMsg(&LGR_HB);
 105              		.loc 1 44 0
 106 0014 0348     		ldr	r0, .L5+4
 107 0016 FFF7FEFF 		bl	CAN_1_SendMsg
  45:can_manager.c **** 	//sd_buffer(LOGGER_HEARTBEAT_ptr);
  46:can_manager.c **** }
 108              		.loc 1 46 0
 109 001a 0837     		adds	r7, r7, #8
 110              		.cfi_def_cfa_offset 8
 111 001c BD46     		mov	sp, r7
 112              		.cfi_def_cfa_register 13
 113              		@ sp needed
 114 001e 80BD     		pop	{r7, pc}
 115              	.L6:
 116              		.align	2
 117              	.L5:
 118 0020 00000000 		.word	LOGGER_HEARTBEAT
 119 0024 00000000 		.word	LGR_HB
 120              		.cfi_endproc
 121              	.LFE64:
 122              		.size	heartbeat_interrupt, .-heartbeat_interrupt
 123              		.section	.text.can_init,"ax",%progbits
 124              		.align	2
 125              		.global	can_init
ARM GAS  D:\Windows\AppData\Local\Temp\ccMSE5zK.s 			page 4


 126              		.thumb
 127              		.thumb_func
 128              		.type	can_init, %function
 129              	can_init:
 130              	.LFB65:
  47:can_manager.c **** 
  48:can_manager.c **** void can_init() {
 131              		.loc 1 48 0
 132              		.cfi_startproc
 133              		@ args = 0, pretend = 0, frame = 0
 134              		@ frame_needed = 1, uses_anonymous_args = 0
 135 0000 80B5     		push	{r7, lr}
 136              		.cfi_def_cfa_offset 8
 137              		.cfi_offset 7, -8
 138              		.cfi_offset 14, -4
 139 0002 00AF     		add	r7, sp, #0
 140              		.cfi_def_cfa_register 7
  49:can_manager.c **** 	CAN_1_GlobalIntEnable(); // CAN Initialization
 141              		.loc 1 49 0
 142 0004 FFF7FEFF 		bl	CAN_1_GlobalIntEnable
  50:can_manager.c **** 	CAN_1_Init();
 143              		.loc 1 50 0
 144 0008 FFF7FEFF 		bl	CAN_1_Init
  51:can_manager.c **** 	CAN_1_Start();
 145              		.loc 1 51 0
 146 000c FFF7FEFF 		bl	CAN_1_Start
  52:can_manager.c **** 	
  53:can_manager.c **** 	//initialize all the can messages 
  54:can_manager.c **** 	can_msg_init(&LOGGER_HEARTBEAT, LOGGER_HEARTBEAT_ID); 
 147              		.loc 1 54 0
 148 0010 1E48     		ldr	r0, .L8
 149 0012 40F22321 		movw	r1, #547
 150 0016 FFF7FEFF 		bl	can_msg_init
  55:can_manager.c **** 	can_msg_init(&DASH, DASH_ID);
 151              		.loc 1 55 0
 152 001a 1D48     		ldr	r0, .L8+4
 153 001c 40F22661 		movw	r1, #1574
 154 0020 FFF7FEFF 		bl	can_msg_init
  56:can_manager.c **** 	can_msg_init(&CURTIS_DEBUG, CURTIS_DEBUG_ID);
 155              		.loc 1 56 0
 156 0024 1B48     		ldr	r0, .L8+8
 157 0026 40F26641 		movw	r1, #1126
 158 002a FFF7FEFF 		bl	can_msg_init
  57:can_manager.c **** 	can_msg_init(&CURTIS_STATUS, CURTIS_STATUS_ID);
 159              		.loc 1 57 0
 160 002e 1A48     		ldr	r0, .L8+12
 161 0030 40F26651 		movw	r1, #1382
 162 0034 FFF7FEFF 		bl	can_msg_init
  58:can_manager.c **** 	can_msg_init(&CURTIS_RCV, CURTIS_RCVACK_ID);
 163              		.loc 1 58 0
 164 0038 1848     		ldr	r0, .L8+16
 165 003a 40F26661 		movw	r1, #1638
 166 003e FFF7FEFF 		bl	can_msg_init
  59:can_manager.c **** 	can_msg_init(&CURTIS_VOLTAGE, CURTIS_VOLTAGE_ID);
 167              		.loc 1 59 0
 168 0042 1748     		ldr	r0, .L8+20
 169 0044 40F66601 		movw	r1, #2150
ARM GAS  D:\Windows\AppData\Local\Temp\ccMSE5zK.s 			page 5


 170 0048 FFF7FEFF 		bl	can_msg_init
  60:can_manager.c **** 	can_msg_init(&THROTTLE, THROTTLE_ID);
 171              		.loc 1 60 0
 172 004c 1548     		ldr	r0, .L8+24
 173 004e 4FF40071 		mov	r1, #512
 174 0052 FFF7FEFF 		bl	can_msg_init
  61:can_manager.c **** 	can_msg_init(&BRAKE, BRAKE_ID);
 175              		.loc 1 61 0
 176 0056 1448     		ldr	r0, .L8+28
 177 0058 40F20121 		movw	r1, #513
 178 005c FFF7FEFF 		bl	can_msg_init
  62:can_manager.c **** 	can_msg_init(&BMS_STATUS, BMS_STATUS_ID); 
 179              		.loc 1 62 0
 180 0060 1248     		ldr	r0, .L8+32
 181 0062 4FF4C471 		mov	r1, #392
 182 0066 FFF7FEFF 		bl	can_msg_init
  63:can_manager.c **** 	can_msg_init(&BMS_VOLTAGE, BMS_VOLTAGE_ID);
 183              		.loc 1 63 0
 184 006a 1148     		ldr	r0, .L8+36
 185 006c 4FF46271 		mov	r1, #904
 186 0070 FFF7FEFF 		bl	can_msg_init
  64:can_manager.c **** 	can_msg_init(&BMS_TEMP, BMS_TEMP_ID);
 187              		.loc 1 64 0
 188 0074 0F48     		ldr	r0, .L8+40
 189 0076 4FF49161 		mov	r1, #1160
 190 007a FFF7FEFF 		bl	can_msg_init
  65:can_manager.c **** 	
  66:can_manager.c **** 	heartbeat_timer_Start();
 191              		.loc 1 66 0
 192 007e FFF7FEFF 		bl	heartbeat_timer_Start
  67:can_manager.c **** 	heartbeat_isr_StartEx(heartbeat_interrupt);
 193              		.loc 1 67 0
 194 0082 0D48     		ldr	r0, .L8+44
 195 0084 FFF7FEFF 		bl	heartbeat_isr_StartEx
  68:can_manager.c **** 
  69:can_manager.c **** } // can_init()
 196              		.loc 1 69 0
 197 0088 80BD     		pop	{r7, pc}
 198              	.L9:
 199 008a 00BF     		.align	2
 200              	.L8:
 201 008c 00000000 		.word	LOGGER_HEARTBEAT
 202 0090 00000000 		.word	DASH
 203 0094 00000000 		.word	CURTIS_DEBUG
 204 0098 00000000 		.word	CURTIS_STATUS
 205 009c 00000000 		.word	CURTIS_RCV
 206 00a0 00000000 		.word	CURTIS_VOLTAGE
 207 00a4 00000000 		.word	THROTTLE
 208 00a8 00000000 		.word	BRAKE
 209 00ac 00000000 		.word	BMS_STATUS
 210 00b0 00000000 		.word	BMS_VOLTAGE
 211 00b4 00000000 		.word	BMS_TEMP
 212 00b8 00000000 		.word	heartbeat_interrupt
 213              		.cfi_endproc
 214              	.LFE65:
 215              		.size	can_init, .-can_init
 216              		.section	.text.can_msg_init,"ax",%progbits
ARM GAS  D:\Windows\AppData\Local\Temp\ccMSE5zK.s 			page 6


 217              		.align	2
 218              		.global	can_msg_init
 219              		.thumb
 220              		.thumb_func
 221              		.type	can_msg_init, %function
 222              	can_msg_init:
 223              	.LFB66:
  70:can_manager.c **** 
  71:can_manager.c **** 
  72:can_manager.c **** //initalize CAN message variables with FF's everywhere
  73:can_manager.c **** void can_msg_init(DataPacket* can_msg, uint16_t id) {
 224              		.loc 1 73 0
 225              		.cfi_startproc
 226              		@ args = 0, pretend = 0, frame = 16
 227              		@ frame_needed = 1, uses_anonymous_args = 0
 228              		@ link register save eliminated.
 229 0000 80B4     		push	{r7}
 230              		.cfi_def_cfa_offset 4
 231              		.cfi_offset 7, -4
 232 0002 85B0     		sub	sp, sp, #20
 233              		.cfi_def_cfa_offset 24
 234 0004 00AF     		add	r7, sp, #0
 235              		.cfi_def_cfa_register 7
 236 0006 7860     		str	r0, [r7, #4]
 237 0008 0B46     		mov	r3, r1
 238 000a 7B80     		strh	r3, [r7, #2]	@ movhi
  74:can_manager.c **** 	uint8_t i;
  75:can_manager.c **** 	can_msg->id = id;
 239              		.loc 1 75 0
 240 000c 7B68     		ldr	r3, [r7, #4]
 241 000e 7A88     		ldrh	r2, [r7, #2]	@ movhi
 242 0010 9A80     		strh	r2, [r3, #4]	@ movhi
  76:can_manager.c **** 	can_msg->length = 8;
 243              		.loc 1 76 0
 244 0012 7B68     		ldr	r3, [r7, #4]
 245 0014 0822     		movs	r2, #8
 246 0016 9A71     		strb	r2, [r3, #6]
  77:can_manager.c **** 	can_msg->millicounter = 0;
 247              		.loc 1 77 0
 248 0018 7B68     		ldr	r3, [r7, #4]
 249 001a 0022     		movs	r2, #0
 250 001c 1A60     		str	r2, [r3]
  78:can_manager.c **** 	for(i=0; i<can_msg->length; i++) {
 251              		.loc 1 78 0
 252 001e 0023     		movs	r3, #0
 253 0020 FB73     		strb	r3, [r7, #15]
 254 0022 07E0     		b	.L11
 255              	.L12:
  79:can_manager.c **** 		can_msg->data[i] = 0xFF;
 256              		.loc 1 79 0 discriminator 3
 257 0024 FB7B     		ldrb	r3, [r7, #15]	@ zero_extendqisi2
 258 0026 7A68     		ldr	r2, [r7, #4]
 259 0028 1344     		add	r3, r3, r2
 260 002a FF22     		movs	r2, #255
 261 002c DA71     		strb	r2, [r3, #7]
  78:can_manager.c **** 	for(i=0; i<can_msg->length; i++) {
 262              		.loc 1 78 0 discriminator 3
ARM GAS  D:\Windows\AppData\Local\Temp\ccMSE5zK.s 			page 7


 263 002e FB7B     		ldrb	r3, [r7, #15]	@ zero_extendqisi2
 264 0030 0133     		adds	r3, r3, #1
 265 0032 FB73     		strb	r3, [r7, #15]
 266              	.L11:
  78:can_manager.c **** 	for(i=0; i<can_msg->length; i++) {
 267              		.loc 1 78 0 is_stmt 0 discriminator 1
 268 0034 7B68     		ldr	r3, [r7, #4]
 269 0036 9B79     		ldrb	r3, [r3, #6]	@ zero_extendqisi2
 270 0038 FA7B     		ldrb	r2, [r7, #15]	@ zero_extendqisi2
 271 003a 9A42     		cmp	r2, r3
 272 003c F2D3     		bcc	.L12
  80:can_manager.c **** 	}
  81:can_manager.c **** 	
  82:can_manager.c **** 	if(id == LOGGER_HEARTBEAT_ID) {		//set up heartbeat message to send to CAN bus
 273              		.loc 1 82 0 is_stmt 1
 274 003e 7B88     		ldrh	r3, [r7, #2]
 275 0040 40F22322 		movw	r2, #547
 276 0044 9342     		cmp	r3, r2
 277 0046 2CD1     		bne	.L13
  83:can_manager.c **** 		LGR_HB.id = LOGGER_HEARTBEAT_ID;
 278              		.loc 1 83 0
 279 0048 314B     		ldr	r3, .L22
 280 004a 40F22322 		movw	r2, #547
 281 004e 1A60     		str	r2, [r3]
  84:can_manager.c **** 		LGR_HB.rtr = 0;
 282              		.loc 1 84 0
 283 0050 2F4B     		ldr	r3, .L22
 284 0052 0022     		movs	r2, #0
 285 0054 1A71     		strb	r2, [r3, #4]
  85:can_manager.c **** 		LGR_HB.ide = 0;
 286              		.loc 1 85 0
 287 0056 2E4B     		ldr	r3, .L22
 288 0058 0022     		movs	r2, #0
 289 005a 5A71     		strb	r2, [r3, #5]
  86:can_manager.c **** 		LGR_HB.dlc = 0x08;
 290              		.loc 1 86 0
 291 005c 2C4B     		ldr	r3, .L22
 292 005e 0822     		movs	r2, #8
 293 0060 9A71     		strb	r2, [r3, #6]
  87:can_manager.c **** 		LGR_HB.irq = 1;
 294              		.loc 1 87 0
 295 0062 2B4B     		ldr	r3, .L22
 296 0064 0122     		movs	r2, #1
 297 0066 DA71     		strb	r2, [r3, #7]
  88:can_manager.c **** 		LGR_HB.msg = &data;
 298              		.loc 1 88 0
 299 0068 294B     		ldr	r3, .L22
 300 006a 2A4A     		ldr	r2, .L22+4
 301 006c 9A60     		str	r2, [r3, #8]
  89:can_manager.c **** 		for(i=0; i<LGR_HB.dlc; i++) {
 302              		.loc 1 89 0
 303 006e 0023     		movs	r3, #0
 304 0070 FB73     		strb	r3, [r7, #15]
 305 0072 0BE0     		b	.L14
 306              	.L15:
  90:can_manager.c **** 			LOGGER_HEARTBEAT.data[i] = 0x00;
 307              		.loc 1 90 0 discriminator 3
ARM GAS  D:\Windows\AppData\Local\Temp\ccMSE5zK.s 			page 8


 308 0074 FB7B     		ldrb	r3, [r7, #15]	@ zero_extendqisi2
 309 0076 284A     		ldr	r2, .L22+8
 310 0078 1344     		add	r3, r3, r2
 311 007a 0022     		movs	r2, #0
 312 007c DA71     		strb	r2, [r3, #7]
  91:can_manager.c **** 			data.byte[i] = 0x00;
 313              		.loc 1 91 0 discriminator 3
 314 007e FB7B     		ldrb	r3, [r7, #15]	@ zero_extendqisi2
 315 0080 244A     		ldr	r2, .L22+4
 316 0082 0021     		movs	r1, #0
 317 0084 D154     		strb	r1, [r2, r3]
  89:can_manager.c **** 		for(i=0; i<LGR_HB.dlc; i++) {
 318              		.loc 1 89 0 discriminator 3
 319 0086 FB7B     		ldrb	r3, [r7, #15]	@ zero_extendqisi2
 320 0088 0133     		adds	r3, r3, #1
 321 008a FB73     		strb	r3, [r7, #15]
 322              	.L14:
  89:can_manager.c **** 		for(i=0; i<LGR_HB.dlc; i++) {
 323              		.loc 1 89 0 is_stmt 0 discriminator 1
 324 008c 204B     		ldr	r3, .L22
 325 008e 9B79     		ldrb	r3, [r3, #6]	@ zero_extendqisi2
 326 0090 FA7B     		ldrb	r2, [r7, #15]	@ zero_extendqisi2
 327 0092 9A42     		cmp	r2, r3
 328 0094 EED3     		bcc	.L15
  92:can_manager.c **** 		}
  93:can_manager.c **** 		LOGGER_HEARTBEAT.data[0] = 0x01;
 329              		.loc 1 93 0 is_stmt 1
 330 0096 204B     		ldr	r3, .L22+8
 331 0098 0122     		movs	r2, #1
 332 009a DA71     		strb	r2, [r3, #7]
  94:can_manager.c **** 		data.byte[0] = 0x01;
 333              		.loc 1 94 0
 334 009c 1D4B     		ldr	r3, .L22+4
 335 009e 0122     		movs	r2, #1
 336 00a0 1A70     		strb	r2, [r3]
 337              	.L13:
  95:can_manager.c **** 	}
  96:can_manager.c **** 	if(id == BMS_TEMP_ID) {		//init BMS_Temp to 25 degrees DECIMAL each Byte
 338              		.loc 1 96 0
 339 00a2 7B88     		ldrh	r3, [r7, #2]
 340 00a4 B3F5916F 		cmp	r3, #1160
 341 00a8 12D1     		bne	.L16
  97:can_manager.c **** 		for(i=0; i<BMS_TEMP.length; i++) {
 342              		.loc 1 97 0
 343 00aa 0023     		movs	r3, #0
 344 00ac FB73     		strb	r3, [r7, #15]
 345 00ae 07E0     		b	.L17
 346              	.L18:
  98:can_manager.c **** 			BMS_TEMP.data[i] = 0x24;
 347              		.loc 1 98 0 discriminator 3
 348 00b0 FB7B     		ldrb	r3, [r7, #15]	@ zero_extendqisi2
 349 00b2 1A4A     		ldr	r2, .L22+12
 350 00b4 1344     		add	r3, r3, r2
 351 00b6 2422     		movs	r2, #36
 352 00b8 DA71     		strb	r2, [r3, #7]
  97:can_manager.c **** 		for(i=0; i<BMS_TEMP.length; i++) {
 353              		.loc 1 97 0 discriminator 3
ARM GAS  D:\Windows\AppData\Local\Temp\ccMSE5zK.s 			page 9


 354 00ba FB7B     		ldrb	r3, [r7, #15]	@ zero_extendqisi2
 355 00bc 0133     		adds	r3, r3, #1
 356 00be FB73     		strb	r3, [r7, #15]
 357              	.L17:
  97:can_manager.c **** 		for(i=0; i<BMS_TEMP.length; i++) {
 358              		.loc 1 97 0 is_stmt 0 discriminator 1
 359 00c0 164B     		ldr	r3, .L22+12
 360 00c2 9B79     		ldrb	r3, [r3, #6]	@ zero_extendqisi2
 361 00c4 FA7B     		ldrb	r2, [r7, #15]	@ zero_extendqisi2
 362 00c6 9A42     		cmp	r2, r3
 363 00c8 F2D3     		bcc	.L18
  99:can_manager.c **** 		}
 100:can_manager.c **** 		BMS_TEMP.data[6] = 0x00;
 364              		.loc 1 100 0 is_stmt 1
 365 00ca 144B     		ldr	r3, .L22+12
 366 00cc 0022     		movs	r2, #0
 367 00ce 5A73     		strb	r2, [r3, #13]
 368              	.L16:
 101:can_manager.c **** 	}
 102:can_manager.c **** 	if(id == BRAKE_ID) {
 369              		.loc 1 102 0
 370 00d0 7B88     		ldrh	r3, [r7, #2]
 371 00d2 40F20122 		movw	r2, #513
 372 00d6 9342     		cmp	r3, r2
 373 00d8 15D1     		bne	.L10
 103:can_manager.c **** 		for(i=0; i<BRAKE.length; i++) {
 374              		.loc 1 103 0
 375 00da 0023     		movs	r3, #0
 376 00dc FB73     		strb	r3, [r7, #15]
 377 00de 07E0     		b	.L20
 378              	.L21:
 104:can_manager.c **** 			BRAKE.data[i] = 0x00;
 379              		.loc 1 104 0 discriminator 3
 380 00e0 FB7B     		ldrb	r3, [r7, #15]	@ zero_extendqisi2
 381 00e2 0F4A     		ldr	r2, .L22+16
 382 00e4 1344     		add	r3, r3, r2
 383 00e6 0022     		movs	r2, #0
 384 00e8 DA71     		strb	r2, [r3, #7]
 103:can_manager.c **** 		for(i=0; i<BRAKE.length; i++) {
 385              		.loc 1 103 0 discriminator 3
 386 00ea FB7B     		ldrb	r3, [r7, #15]	@ zero_extendqisi2
 387 00ec 0133     		adds	r3, r3, #1
 388 00ee FB73     		strb	r3, [r7, #15]
 389              	.L20:
 103:can_manager.c **** 		for(i=0; i<BRAKE.length; i++) {
 390              		.loc 1 103 0 is_stmt 0 discriminator 1
 391 00f0 0B4B     		ldr	r3, .L22+16
 392 00f2 9B79     		ldrb	r3, [r3, #6]	@ zero_extendqisi2
 393 00f4 FA7B     		ldrb	r2, [r7, #15]	@ zero_extendqisi2
 394 00f6 9A42     		cmp	r2, r3
 395 00f8 F2D3     		bcc	.L21
 105:can_manager.c **** 		}
 106:can_manager.c **** 		BRAKE.data[6] = 0x01;
 396              		.loc 1 106 0 is_stmt 1
 397 00fa 094B     		ldr	r3, .L22+16
 398 00fc 0122     		movs	r2, #1
 399 00fe 5A73     		strb	r2, [r3, #13]
ARM GAS  D:\Windows\AppData\Local\Temp\ccMSE5zK.s 			page 10


 107:can_manager.c **** 		BRAKE.data[7] = 0x97;
 400              		.loc 1 107 0
 401 0100 074B     		ldr	r3, .L22+16
 402 0102 9722     		movs	r2, #151
 403 0104 9A73     		strb	r2, [r3, #14]
 404              	.L10:
 108:can_manager.c **** 	}
 109:can_manager.c **** } //can_msg_init()
 405              		.loc 1 109 0
 406 0106 1437     		adds	r7, r7, #20
 407              		.cfi_def_cfa_offset 4
 408 0108 BD46     		mov	sp, r7
 409              		.cfi_def_cfa_register 13
 410              		@ sp needed
 411 010a 5DF8047B 		ldr	r7, [sp], #4
 412              		.cfi_restore 7
 413              		.cfi_def_cfa_offset 0
 414 010e 7047     		bx	lr
 415              	.L23:
 416              		.align	2
 417              	.L22:
 418 0110 00000000 		.word	LGR_HB
 419 0114 00000000 		.word	data
 420 0118 00000000 		.word	LOGGER_HEARTBEAT
 421 011c 00000000 		.word	BMS_TEMP
 422 0120 00000000 		.word	BRAKE
 423              		.cfi_endproc
 424              	.LFE66:
 425              		.size	can_msg_init, .-can_msg_init
 426              		.section	.text.can_process,"ax",%progbits
 427              		.align	2
 428              		.global	can_process
 429              		.thumb
 430              		.thumb_func
 431              		.type	can_process, %function
 432              	can_process:
 433              	.LFB67:
 110:can_manager.c **** 
 111:can_manager.c **** /*  recieves can message from bus can compares it with is respective id*/
 112:can_manager.c **** int can_process(DataPacket* can_msg){
 434              		.loc 1 112 0
 435              		.cfi_startproc
 436              		@ args = 0, pretend = 0, frame = 16
 437              		@ frame_needed = 1, uses_anonymous_args = 0
 438 0000 80B5     		push	{r7, lr}
 439              		.cfi_def_cfa_offset 8
 440              		.cfi_offset 7, -8
 441              		.cfi_offset 14, -4
 442 0002 84B0     		sub	sp, sp, #16
 443              		.cfi_def_cfa_offset 24
 444 0004 00AF     		add	r7, sp, #0
 445              		.cfi_def_cfa_register 7
 446 0006 7860     		str	r0, [r7, #4]
 113:can_manager.c **** 	int status = 0;		//returns 1 if message is updated
 447              		.loc 1 113 0
 448 0008 0023     		movs	r3, #0
 449 000a FB60     		str	r3, [r7, #12]
ARM GAS  D:\Windows\AppData\Local\Temp\ccMSE5zK.s 			page 11


 114:can_manager.c ****     switch (can_msg->id) {
 450              		.loc 1 114 0
 451 000c 7B68     		ldr	r3, [r7, #4]
 452 000e 9B88     		ldrh	r3, [r3, #4]
 453 0010 B3F5916F 		cmp	r3, #1160
 454 0014 6FD0     		beq	.L26
 455 0016 B3F5916F 		cmp	r3, #1160
 456 001a 16DC     		bgt	.L27
 457 001c 40F20122 		movw	r2, #513
 458 0020 9342     		cmp	r3, r2
 459 0022 56D0     		beq	.L28
 460 0024 40F20122 		movw	r2, #513
 461 0028 9342     		cmp	r3, r2
 462 002a 06DC     		bgt	.L29
 463 002c B3F5C47F 		cmp	r3, #392
 464 0030 55D0     		beq	.L30
 465 0032 B3F5007F 		cmp	r3, #512
 466 0036 46D0     		beq	.L31
 467 0038 63E0     		b	.L25
 468              	.L29:
 469 003a B3F5627F 		cmp	r3, #904
 470 003e 54D0     		beq	.L32
 471 0040 40F26642 		movw	r2, #1126
 472 0044 9342     		cmp	r3, r2
 473 0046 20D0     		beq	.L33
 474 0048 5BE0     		b	.L25
 475              	.L27:
 476 004a 40F26662 		movw	r2, #1638
 477 004e 9342     		cmp	r3, r2
 478 0050 27D0     		beq	.L34
 479 0052 40F26662 		movw	r2, #1638
 480 0056 9342     		cmp	r3, r2
 481 0058 08DC     		bgt	.L35
 482 005a 40F26652 		movw	r2, #1382
 483 005e 9342     		cmp	r3, r2
 484 0060 19D0     		beq	.L36
 485 0062 40F22662 		movw	r2, #1574
 486 0066 9342     		cmp	r3, r2
 487 0068 09D0     		beq	.L37
 488 006a 4AE0     		b	.L25
 489              	.L35:
 490 006c 40F26672 		movw	r2, #1894
 491 0070 9342     		cmp	r3, r2
 492 0072 1CD0     		beq	.L38
 493 0074 40F66602 		movw	r2, #2150
 494 0078 9342     		cmp	r3, r2
 495 007a 1ED0     		beq	.L39
 496 007c 41E0     		b	.L25
 497              	.L37:
 115:can_manager.c **** 	case DASH_ID:			//0x626	
 116:can_manager.c **** 		status = can_compare(&DASH, can_msg);	break;
 498              		.loc 1 116 0
 499 007e 2548     		ldr	r0, .L42
 500 0080 7968     		ldr	r1, [r7, #4]
 501 0082 FFF7FEFF 		bl	can_compare
 502 0086 F860     		str	r0, [r7, #12]
 503 0088 3EE0     		b	.L40
ARM GAS  D:\Windows\AppData\Local\Temp\ccMSE5zK.s 			page 12


 504              	.L33:
 117:can_manager.c **** 	case CURTIS_DEBUG_ID:	//0x466
 118:can_manager.c **** 		status = can_compare(&CURTIS_DEBUG, can_msg);	break;
 505              		.loc 1 118 0
 506 008a 2348     		ldr	r0, .L42+4
 507 008c 7968     		ldr	r1, [r7, #4]
 508 008e FFF7FEFF 		bl	can_compare
 509 0092 F860     		str	r0, [r7, #12]
 510 0094 38E0     		b	.L40
 511              	.L36:
 119:can_manager.c **** 	case CURTIS_STATUS_ID:	//0x566
 120:can_manager.c **** 		status = can_compare(&CURTIS_STATUS, can_msg);	break;
 512              		.loc 1 120 0
 513 0096 2148     		ldr	r0, .L42+8
 514 0098 7968     		ldr	r1, [r7, #4]
 515 009a FFF7FEFF 		bl	can_compare
 516 009e F860     		str	r0, [r7, #12]
 517 00a0 32E0     		b	.L40
 518              	.L34:
 121:can_manager.c **** 	case CURTIS_RCVACK_ID:	//0x666
 122:can_manager.c **** 		status = can_compare(&CURTIS_RCVACK, can_msg);	break;
 519              		.loc 1 122 0
 520 00a2 1F48     		ldr	r0, .L42+12
 521 00a4 7968     		ldr	r1, [r7, #4]
 522 00a6 FFF7FEFF 		bl	can_compare
 523 00aa F860     		str	r0, [r7, #12]
 524 00ac 2CE0     		b	.L40
 525              	.L38:
 123:can_manager.c **** 	case CURTIS_RCV_ID:		//0x766
 124:can_manager.c **** 		status = can_compare(&CURTIS_RCV, can_msg);	break;
 526              		.loc 1 124 0
 527 00ae 1D48     		ldr	r0, .L42+16
 528 00b0 7968     		ldr	r1, [r7, #4]
 529 00b2 FFF7FEFF 		bl	can_compare
 530 00b6 F860     		str	r0, [r7, #12]
 531 00b8 26E0     		b	.L40
 532              	.L39:
 125:can_manager.c **** 	case CURTIS_VOLTAGE_ID:	//0x866
 126:can_manager.c **** 		status = can_compare(&CURTIS_VOLTAGE, can_msg);	break;
 533              		.loc 1 126 0
 534 00ba 1B48     		ldr	r0, .L42+20
 535 00bc 7968     		ldr	r1, [r7, #4]
 536 00be FFF7FEFF 		bl	can_compare
 537 00c2 F860     		str	r0, [r7, #12]
 538 00c4 20E0     		b	.L40
 539              	.L31:
 127:can_manager.c **** 	case THROTTLE_ID:		//0x200
 128:can_manager.c **** 		status = can_compare(&THROTTLE, can_msg);	break;
 540              		.loc 1 128 0
 541 00c6 1948     		ldr	r0, .L42+24
 542 00c8 7968     		ldr	r1, [r7, #4]
 543 00ca FFF7FEFF 		bl	can_compare
 544 00ce F860     		str	r0, [r7, #12]
 545 00d0 1AE0     		b	.L40
 546              	.L28:
 129:can_manager.c **** 	case BRAKE_ID:			//0x201
 130:can_manager.c **** 		status = can_compare(&BRAKE, can_msg);	break;
ARM GAS  D:\Windows\AppData\Local\Temp\ccMSE5zK.s 			page 13


 547              		.loc 1 130 0
 548 00d2 1748     		ldr	r0, .L42+28
 549 00d4 7968     		ldr	r1, [r7, #4]
 550 00d6 FFF7FEFF 		bl	can_compare
 551 00da F860     		str	r0, [r7, #12]
 552 00dc 14E0     		b	.L40
 553              	.L30:
 131:can_manager.c **** 	case BMS_STATUS_ID:		//0x188
 132:can_manager.c **** 		status = can_compare(&BMS_STATUS, can_msg);	break;
 554              		.loc 1 132 0
 555 00de 1548     		ldr	r0, .L42+32
 556 00e0 7968     		ldr	r1, [r7, #4]
 557 00e2 FFF7FEFF 		bl	can_compare
 558 00e6 F860     		str	r0, [r7, #12]
 559 00e8 0EE0     		b	.L40
 560              	.L32:
 133:can_manager.c **** 	case BMS_VOLTAGE_ID:	//0x388
 134:can_manager.c **** 		status = can_compare(&BMS_VOLTAGE, can_msg);	break;
 561              		.loc 1 134 0
 562 00ea 1348     		ldr	r0, .L42+36
 563 00ec 7968     		ldr	r1, [r7, #4]
 564 00ee FFF7FEFF 		bl	can_compare
 565 00f2 F860     		str	r0, [r7, #12]
 566 00f4 08E0     		b	.L40
 567              	.L26:
 135:can_manager.c **** 	case BMS_TEMP_ID:		//0x488
 136:can_manager.c **** 		status = can_compare(&BMS_TEMP, can_msg);	break;
 568              		.loc 1 136 0
 569 00f6 1148     		ldr	r0, .L42+40
 570 00f8 7968     		ldr	r1, [r7, #4]
 571 00fa FFF7FEFF 		bl	can_compare
 572 00fe F860     		str	r0, [r7, #12]
 573 0100 02E0     		b	.L40
 574              	.L25:
 137:can_manager.c ****     default:
 138:can_manager.c **** 		status = 1;
 575              		.loc 1 138 0
 576 0102 0123     		movs	r3, #1
 577 0104 FB60     		str	r3, [r7, #12]
 139:can_manager.c ****         break;
 578              		.loc 1 139 0
 579 0106 00BF     		nop
 580              	.L40:
 140:can_manager.c ****     }
 141:can_manager.c **** 	return status;
 581              		.loc 1 141 0
 582 0108 FB68     		ldr	r3, [r7, #12]
 142:can_manager.c **** }
 583              		.loc 1 142 0
 584 010a 1846     		mov	r0, r3
 585 010c 1037     		adds	r7, r7, #16
 586              		.cfi_def_cfa_offset 8
 587 010e BD46     		mov	sp, r7
 588              		.cfi_def_cfa_register 13
 589              		@ sp needed
 590 0110 80BD     		pop	{r7, pc}
 591              	.L43:
ARM GAS  D:\Windows\AppData\Local\Temp\ccMSE5zK.s 			page 14


 592 0112 00BF     		.align	2
 593              	.L42:
 594 0114 00000000 		.word	DASH
 595 0118 00000000 		.word	CURTIS_DEBUG
 596 011c 00000000 		.word	CURTIS_STATUS
 597 0120 00000000 		.word	CURTIS_RCVACK
 598 0124 00000000 		.word	CURTIS_RCV
 599 0128 00000000 		.word	CURTIS_VOLTAGE
 600 012c 00000000 		.word	THROTTLE
 601 0130 00000000 		.word	BRAKE
 602 0134 00000000 		.word	BMS_STATUS
 603 0138 00000000 		.word	BMS_VOLTAGE
 604 013c 00000000 		.word	BMS_TEMP
 605              		.cfi_endproc
 606              	.LFE67:
 607              		.size	can_process, .-can_process
 608              		.section	.text.can_compare,"ax",%progbits
 609              		.align	2
 610              		.global	can_compare
 611              		.thumb
 612              		.thumb_func
 613              		.type	can_compare, %function
 614              	can_compare:
 615              	.LFB68:
 143:can_manager.c **** 
 144:can_manager.c **** /*	compares received can message with the latest can message of the same id.
 145:can_manager.c **** 	if it is different, it will add update that DataPacket variable and add it to the can buffer	
 146:can_manager.c **** 	returns: 1 if message was updated, 0 if message same as before */
 147:can_manager.c **** int can_compare(DataPacket* prev_msg, DataPacket* new_msg) {
 616              		.loc 1 147 0
 617              		.cfi_startproc
 618              		@ args = 0, pretend = 0, frame = 32
 619              		@ frame_needed = 1, uses_anonymous_args = 0
 620              		@ link register save eliminated.
 621 0000 80B4     		push	{r7}
 622              		.cfi_def_cfa_offset 4
 623              		.cfi_offset 7, -4
 624 0002 89B0     		sub	sp, sp, #36
 625              		.cfi_def_cfa_offset 40
 626 0004 00AF     		add	r7, sp, #0
 627              		.cfi_def_cfa_register 7
 628 0006 7860     		str	r0, [r7, #4]
 629 0008 3960     		str	r1, [r7]
 148:can_manager.c **** 	uint8_t i, j;
 149:can_manager.c **** 	uint8_t offset = 0;
 630              		.loc 1 149 0
 631 000a 0023     		movs	r3, #0
 632 000c 7B77     		strb	r3, [r7, #29]
 150:can_manager.c **** 	DataPacket temp;
 151:can_manager.c ****  
 152:can_manager.c **** 	temp.id = new_msg->id;
 633              		.loc 1 152 0
 634 000e 3B68     		ldr	r3, [r7]
 635 0010 9B88     		ldrh	r3, [r3, #4]
 636 0012 BB81     		strh	r3, [r7, #12]	@ movhi
 153:can_manager.c **** 	temp.length = new_msg->length;
 637              		.loc 1 153 0
ARM GAS  D:\Windows\AppData\Local\Temp\ccMSE5zK.s 			page 15


 638 0014 3B68     		ldr	r3, [r7]
 639 0016 9B79     		ldrb	r3, [r3, #6]	@ zero_extendqisi2
 640 0018 BB73     		strb	r3, [r7, #14]
 154:can_manager.c **** 	temp.millicounter = new_msg->millicounter;
 641              		.loc 1 154 0
 642 001a 3B68     		ldr	r3, [r7]
 643 001c 1B68     		ldr	r3, [r3]
 644 001e BB60     		str	r3, [r7, #8]
 155:can_manager.c **** 	for(i=0; i<temp.length; i++) {
 645              		.loc 1 155 0
 646 0020 0023     		movs	r3, #0
 647 0022 FB77     		strb	r3, [r7, #31]
 648 0024 0CE0     		b	.L45
 649              	.L46:
 156:can_manager.c **** 		temp.data[i] = new_msg->data[i];
 650              		.loc 1 156 0 discriminator 3
 651 0026 FB7F     		ldrb	r3, [r7, #31]	@ zero_extendqisi2
 652 0028 FA7F     		ldrb	r2, [r7, #31]	@ zero_extendqisi2
 653 002a 3968     		ldr	r1, [r7]
 654 002c 0A44     		add	r2, r2, r1
 655 002e D279     		ldrb	r2, [r2, #7]	@ zero_extendqisi2
 656 0030 07F12001 		add	r1, r7, #32
 657 0034 0B44     		add	r3, r3, r1
 658 0036 03F8112C 		strb	r2, [r3, #-17]
 155:can_manager.c **** 	for(i=0; i<temp.length; i++) {
 659              		.loc 1 155 0 discriminator 3
 660 003a FB7F     		ldrb	r3, [r7, #31]	@ zero_extendqisi2
 661 003c 0133     		adds	r3, r3, #1
 662 003e FB77     		strb	r3, [r7, #31]
 663              	.L45:
 155:can_manager.c **** 	for(i=0; i<temp.length; i++) {
 664              		.loc 1 155 0 is_stmt 0 discriminator 1
 665 0040 BB7B     		ldrb	r3, [r7, #14]	@ zero_extendqisi2
 666 0042 FA7F     		ldrb	r2, [r7, #31]	@ zero_extendqisi2
 667 0044 9A42     		cmp	r2, r3
 668 0046 EED3     		bcc	.L46
 157:can_manager.c **** 	}
 158:can_manager.c **** 	
 159:can_manager.c **** 	//bytes received in little endian so have to reverse to big endian 32bits
 160:can_manager.c **** 	for(i=0; i<(new_msg->length/2); i++) {		//swap bytes 0-3
 669              		.loc 1 160 0 is_stmt 1
 670 0048 0023     		movs	r3, #0
 671 004a FB77     		strb	r3, [r7, #31]
 672 004c 16E0     		b	.L47
 673              	.L48:
 161:can_manager.c **** 		new_msg->data[i+offset] = temp.data[offset + temp.length/2 - i - 1];
 674              		.loc 1 161 0 discriminator 3
 675 004e FA7F     		ldrb	r2, [r7, #31]	@ zero_extendqisi2
 676 0050 7B7F     		ldrb	r3, [r7, #29]	@ zero_extendqisi2
 677 0052 1344     		add	r3, r3, r2
 678 0054 7A7F     		ldrb	r2, [r7, #29]	@ zero_extendqisi2
 679 0056 B97B     		ldrb	r1, [r7, #14]	@ zero_extendqisi2
 680 0058 4908     		lsrs	r1, r1, #1
 681 005a C9B2     		uxtb	r1, r1
 682 005c 1144     		add	r1, r1, r2
 683 005e FA7F     		ldrb	r2, [r7, #31]	@ zero_extendqisi2
 684 0060 8A1A     		subs	r2, r1, r2
ARM GAS  D:\Windows\AppData\Local\Temp\ccMSE5zK.s 			page 16


 685 0062 013A     		subs	r2, r2, #1
 686 0064 07F12001 		add	r1, r7, #32
 687 0068 0A44     		add	r2, r2, r1
 688 006a 12F8111C 		ldrb	r1, [r2, #-17]	@ zero_extendqisi2
 689 006e 3A68     		ldr	r2, [r7]
 690 0070 1344     		add	r3, r3, r2
 691 0072 0A46     		mov	r2, r1
 692 0074 DA71     		strb	r2, [r3, #7]
 160:can_manager.c **** 		new_msg->data[i+offset] = temp.data[offset + temp.length/2 - i - 1];
 693              		.loc 1 160 0 discriminator 3
 694 0076 FB7F     		ldrb	r3, [r7, #31]	@ zero_extendqisi2
 695 0078 0133     		adds	r3, r3, #1
 696 007a FB77     		strb	r3, [r7, #31]
 697              	.L47:
 160:can_manager.c **** 		new_msg->data[i+offset] = temp.data[offset + temp.length/2 - i - 1];
 698              		.loc 1 160 0 is_stmt 0 discriminator 1
 699 007c 3B68     		ldr	r3, [r7]
 700 007e 9B79     		ldrb	r3, [r3, #6]	@ zero_extendqisi2
 701 0080 5B08     		lsrs	r3, r3, #1
 702 0082 DBB2     		uxtb	r3, r3
 703 0084 FA7F     		ldrb	r2, [r7, #31]	@ zero_extendqisi2
 704 0086 9A42     		cmp	r2, r3
 705 0088 E1D3     		bcc	.L48
 162:can_manager.c **** 	}//for
 163:can_manager.c **** 	offset = 4;
 706              		.loc 1 163 0 is_stmt 1
 707 008a 0423     		movs	r3, #4
 708 008c 7B77     		strb	r3, [r7, #29]
 164:can_manager.c **** 	for(i=0; i<(new_msg->length/2); i++) {		//swap bytes 4-7
 709              		.loc 1 164 0
 710 008e 0023     		movs	r3, #0
 711 0090 FB77     		strb	r3, [r7, #31]
 712 0092 16E0     		b	.L49
 713              	.L50:
 165:can_manager.c **** 		new_msg->data[i+offset] = temp.data[offset + temp.length/2 - i - 1];
 714              		.loc 1 165 0 discriminator 3
 715 0094 FA7F     		ldrb	r2, [r7, #31]	@ zero_extendqisi2
 716 0096 7B7F     		ldrb	r3, [r7, #29]	@ zero_extendqisi2
 717 0098 1344     		add	r3, r3, r2
 718 009a 7A7F     		ldrb	r2, [r7, #29]	@ zero_extendqisi2
 719 009c B97B     		ldrb	r1, [r7, #14]	@ zero_extendqisi2
 720 009e 4908     		lsrs	r1, r1, #1
 721 00a0 C9B2     		uxtb	r1, r1
 722 00a2 1144     		add	r1, r1, r2
 723 00a4 FA7F     		ldrb	r2, [r7, #31]	@ zero_extendqisi2
 724 00a6 8A1A     		subs	r2, r1, r2
 725 00a8 013A     		subs	r2, r2, #1
 726 00aa 07F12001 		add	r1, r7, #32
 727 00ae 0A44     		add	r2, r2, r1
 728 00b0 12F8111C 		ldrb	r1, [r2, #-17]	@ zero_extendqisi2
 729 00b4 3A68     		ldr	r2, [r7]
 730 00b6 1344     		add	r3, r3, r2
 731 00b8 0A46     		mov	r2, r1
 732 00ba DA71     		strb	r2, [r3, #7]
 164:can_manager.c **** 	for(i=0; i<(new_msg->length/2); i++) {		//swap bytes 4-7
 733              		.loc 1 164 0 discriminator 3
 734 00bc FB7F     		ldrb	r3, [r7, #31]	@ zero_extendqisi2
ARM GAS  D:\Windows\AppData\Local\Temp\ccMSE5zK.s 			page 17


 735 00be 0133     		adds	r3, r3, #1
 736 00c0 FB77     		strb	r3, [r7, #31]
 737              	.L49:
 164:can_manager.c **** 	for(i=0; i<(new_msg->length/2); i++) {		//swap bytes 4-7
 738              		.loc 1 164 0 is_stmt 0 discriminator 1
 739 00c2 3B68     		ldr	r3, [r7]
 740 00c4 9B79     		ldrb	r3, [r3, #6]	@ zero_extendqisi2
 741 00c6 5B08     		lsrs	r3, r3, #1
 742 00c8 DBB2     		uxtb	r3, r3
 743 00ca FA7F     		ldrb	r2, [r7, #31]	@ zero_extendqisi2
 744 00cc 9A42     		cmp	r2, r3
 745 00ce E1D3     		bcc	.L50
 166:can_manager.c **** 	}//for
 167:can_manager.c **** 	
 168:can_manager.c **** 	//brake data oscillates around 0x0196 so keep brake val min = 0x0199
 169:can_manager.c **** 	if(new_msg->id == BRAKE_ID) {				
 746              		.loc 1 169 0 is_stmt 1
 747 00d0 3B68     		ldr	r3, [r7]
 748 00d2 9B88     		ldrh	r3, [r3, #4]
 749 00d4 40F20122 		movw	r2, #513
 750 00d8 9342     		cmp	r3, r2
 751 00da 3FD1     		bne	.L51
 752              	.LBB2:
 170:can_manager.c **** 		uint16_t prev_brake_val = (prev_msg->data[6] << 8) | prev_msg->data[7];
 753              		.loc 1 170 0
 754 00dc 7B68     		ldr	r3, [r7, #4]
 755 00de 5B7B     		ldrb	r3, [r3, #13]	@ zero_extendqisi2
 756 00e0 1B02     		lsls	r3, r3, #8
 757 00e2 9AB2     		uxth	r2, r3
 758 00e4 7B68     		ldr	r3, [r7, #4]
 759 00e6 9B7B     		ldrb	r3, [r3, #14]	@ zero_extendqisi2
 760 00e8 9BB2     		uxth	r3, r3
 761 00ea 1343     		orrs	r3, r3, r2
 762 00ec 9BB2     		uxth	r3, r3
 763 00ee 7B83     		strh	r3, [r7, #26]	@ movhi
 171:can_manager.c **** 		uint16_t new_brake_val = (new_msg->data[6] << 8) | new_msg->data[7];
 764              		.loc 1 171 0
 765 00f0 3B68     		ldr	r3, [r7]
 766 00f2 5B7B     		ldrb	r3, [r3, #13]	@ zero_extendqisi2
 767 00f4 1B02     		lsls	r3, r3, #8
 768 00f6 9AB2     		uxth	r2, r3
 769 00f8 3B68     		ldr	r3, [r7]
 770 00fa 9B7B     		ldrb	r3, [r3, #14]	@ zero_extendqisi2
 771 00fc 9BB2     		uxth	r3, r3
 772 00fe 1343     		orrs	r3, r3, r2
 773 0100 9BB2     		uxth	r3, r3
 774 0102 3B83     		strh	r3, [r7, #24]	@ movhi
 172:can_manager.c **** 	
 173:can_manager.c **** 		if(new_brake_val != prev_brake_val && new_brake_val > 0x0199) { //0x0199 threshold
 775              		.loc 1 173 0
 776 0104 3A8B     		ldrh	r2, [r7, #24]
 777 0106 7B8B     		ldrh	r3, [r7, #26]
 778 0108 9A42     		cmp	r2, r3
 779 010a 25D0     		beq	.L52
 780              		.loc 1 173 0 is_stmt 0 discriminator 1
 781 010c 3B8B     		ldrh	r3, [r7, #24]
 782 010e B3F5CD7F 		cmp	r3, #410
ARM GAS  D:\Windows\AppData\Local\Temp\ccMSE5zK.s 			page 18


 783 0112 21D3     		bcc	.L52
 174:can_manager.c **** 			prev_msg->id = new_msg->id;
 784              		.loc 1 174 0 is_stmt 1
 785 0114 3B68     		ldr	r3, [r7]
 786 0116 9A88     		ldrh	r2, [r3, #4]
 787 0118 7B68     		ldr	r3, [r7, #4]
 788 011a 9A80     		strh	r2, [r3, #4]	@ movhi
 175:can_manager.c **** 			prev_msg->length = new_msg->length;
 789              		.loc 1 175 0
 790 011c 3B68     		ldr	r3, [r7]
 791 011e 9A79     		ldrb	r2, [r3, #6]	@ zero_extendqisi2
 792 0120 7B68     		ldr	r3, [r7, #4]
 793 0122 9A71     		strb	r2, [r3, #6]
 176:can_manager.c **** 			prev_msg->millicounter = new_msg->millicounter;	
 794              		.loc 1 176 0
 795 0124 3B68     		ldr	r3, [r7]
 796 0126 1A68     		ldr	r2, [r3]
 797 0128 7B68     		ldr	r3, [r7, #4]
 798 012a 1A60     		str	r2, [r3]
 177:can_manager.c **** 			for(j=0; j<new_msg->length; j++) {
 799              		.loc 1 177 0
 800 012c 0023     		movs	r3, #0
 801 012e BB77     		strb	r3, [r7, #30]
 802 0130 0BE0     		b	.L53
 803              	.L54:
 178:can_manager.c **** 				prev_msg->data[j] = new_msg->data[j];
 804              		.loc 1 178 0 discriminator 3
 805 0132 BB7F     		ldrb	r3, [r7, #30]	@ zero_extendqisi2
 806 0134 BA7F     		ldrb	r2, [r7, #30]	@ zero_extendqisi2
 807 0136 3968     		ldr	r1, [r7]
 808 0138 0A44     		add	r2, r2, r1
 809 013a D179     		ldrb	r1, [r2, #7]	@ zero_extendqisi2
 810 013c 7A68     		ldr	r2, [r7, #4]
 811 013e 1344     		add	r3, r3, r2
 812 0140 0A46     		mov	r2, r1
 813 0142 DA71     		strb	r2, [r3, #7]
 177:can_manager.c **** 			for(j=0; j<new_msg->length; j++) {
 814              		.loc 1 177 0 discriminator 3
 815 0144 BB7F     		ldrb	r3, [r7, #30]	@ zero_extendqisi2
 816 0146 0133     		adds	r3, r3, #1
 817 0148 BB77     		strb	r3, [r7, #30]
 818              	.L53:
 177:can_manager.c **** 			for(j=0; j<new_msg->length; j++) {
 819              		.loc 1 177 0 is_stmt 0 discriminator 1
 820 014a 3B68     		ldr	r3, [r7]
 821 014c 9B79     		ldrb	r3, [r3, #6]	@ zero_extendqisi2
 822 014e BA7F     		ldrb	r2, [r7, #30]	@ zero_extendqisi2
 823 0150 9A42     		cmp	r2, r3
 824 0152 EED3     		bcc	.L54
 179:can_manager.c **** 			}
 180:can_manager.c **** 			return 1;
 825              		.loc 1 180 0 is_stmt 1
 826 0154 0123     		movs	r3, #1
 827 0156 39E0     		b	.L61
 828              	.L52:
 181:can_manager.c **** 		}//if
 182:can_manager.c **** 		return 0;
ARM GAS  D:\Windows\AppData\Local\Temp\ccMSE5zK.s 			page 19


 829              		.loc 1 182 0
 830 0158 0023     		movs	r3, #0
 831 015a 37E0     		b	.L61
 832              	.L51:
 833              	.LBE2:
 183:can_manager.c **** 	}
 184:can_manager.c **** 	
 185:can_manager.c **** 	for(i=0; i<new_msg->length; i++) {					//compare all 8 data bytes
 834              		.loc 1 185 0
 835 015c 0023     		movs	r3, #0
 836 015e FB77     		strb	r3, [r7, #31]
 837 0160 2EE0     		b	.L56
 838              	.L60:
 186:can_manager.c **** 		if(prev_msg->data[i] != new_msg->data[i]) {		//update it if data[] has changed
 839              		.loc 1 186 0
 840 0162 FB7F     		ldrb	r3, [r7, #31]	@ zero_extendqisi2
 841 0164 7A68     		ldr	r2, [r7, #4]
 842 0166 1344     		add	r3, r3, r2
 843 0168 DA79     		ldrb	r2, [r3, #7]	@ zero_extendqisi2
 844 016a FB7F     		ldrb	r3, [r7, #31]	@ zero_extendqisi2
 845 016c 3968     		ldr	r1, [r7]
 846 016e 0B44     		add	r3, r3, r1
 847 0170 DB79     		ldrb	r3, [r3, #7]	@ zero_extendqisi2
 848 0172 9A42     		cmp	r2, r3
 849 0174 21D0     		beq	.L57
 187:can_manager.c **** 			prev_msg->id = new_msg->id;
 850              		.loc 1 187 0
 851 0176 3B68     		ldr	r3, [r7]
 852 0178 9A88     		ldrh	r2, [r3, #4]
 853 017a 7B68     		ldr	r3, [r7, #4]
 854 017c 9A80     		strh	r2, [r3, #4]	@ movhi
 188:can_manager.c **** 			prev_msg->length = new_msg->length;
 855              		.loc 1 188 0
 856 017e 3B68     		ldr	r3, [r7]
 857 0180 9A79     		ldrb	r2, [r3, #6]	@ zero_extendqisi2
 858 0182 7B68     		ldr	r3, [r7, #4]
 859 0184 9A71     		strb	r2, [r3, #6]
 189:can_manager.c **** 			prev_msg->millicounter = new_msg->millicounter;	
 860              		.loc 1 189 0
 861 0186 3B68     		ldr	r3, [r7]
 862 0188 1A68     		ldr	r2, [r3]
 863 018a 7B68     		ldr	r3, [r7, #4]
 864 018c 1A60     		str	r2, [r3]
 190:can_manager.c **** 			for(j=0; j<new_msg->length; j++) {
 865              		.loc 1 190 0
 866 018e 0023     		movs	r3, #0
 867 0190 BB77     		strb	r3, [r7, #30]
 868 0192 0BE0     		b	.L58
 869              	.L59:
 191:can_manager.c **** 				prev_msg->data[j] = new_msg->data[j];
 870              		.loc 1 191 0 discriminator 3
 871 0194 BB7F     		ldrb	r3, [r7, #30]	@ zero_extendqisi2
 872 0196 BA7F     		ldrb	r2, [r7, #30]	@ zero_extendqisi2
 873 0198 3968     		ldr	r1, [r7]
 874 019a 0A44     		add	r2, r2, r1
 875 019c D179     		ldrb	r1, [r2, #7]	@ zero_extendqisi2
 876 019e 7A68     		ldr	r2, [r7, #4]
ARM GAS  D:\Windows\AppData\Local\Temp\ccMSE5zK.s 			page 20


 877 01a0 1344     		add	r3, r3, r2
 878 01a2 0A46     		mov	r2, r1
 879 01a4 DA71     		strb	r2, [r3, #7]
 190:can_manager.c **** 			for(j=0; j<new_msg->length; j++) {
 880              		.loc 1 190 0 discriminator 3
 881 01a6 BB7F     		ldrb	r3, [r7, #30]	@ zero_extendqisi2
 882 01a8 0133     		adds	r3, r3, #1
 883 01aa BB77     		strb	r3, [r7, #30]
 884              	.L58:
 190:can_manager.c **** 			for(j=0; j<new_msg->length; j++) {
 885              		.loc 1 190 0 is_stmt 0 discriminator 1
 886 01ac 3B68     		ldr	r3, [r7]
 887 01ae 9B79     		ldrb	r3, [r3, #6]	@ zero_extendqisi2
 888 01b0 BA7F     		ldrb	r2, [r7, #30]	@ zero_extendqisi2
 889 01b2 9A42     		cmp	r2, r3
 890 01b4 EED3     		bcc	.L59
 192:can_manager.c **** 			}
 193:can_manager.c **** 			
 194:can_manager.c **** 			return 1;
 891              		.loc 1 194 0 is_stmt 1
 892 01b6 0123     		movs	r3, #1
 893 01b8 08E0     		b	.L61
 894              	.L57:
 185:can_manager.c **** 		if(prev_msg->data[i] != new_msg->data[i]) {		//update it if data[] has changed
 895              		.loc 1 185 0 discriminator 2
 896 01ba FB7F     		ldrb	r3, [r7, #31]	@ zero_extendqisi2
 897 01bc 0133     		adds	r3, r3, #1
 898 01be FB77     		strb	r3, [r7, #31]
 899              	.L56:
 185:can_manager.c **** 		if(prev_msg->data[i] != new_msg->data[i]) {		//update it if data[] has changed
 900              		.loc 1 185 0 is_stmt 0 discriminator 1
 901 01c0 3B68     		ldr	r3, [r7]
 902 01c2 9B79     		ldrb	r3, [r3, #6]	@ zero_extendqisi2
 903 01c4 FA7F     		ldrb	r2, [r7, #31]	@ zero_extendqisi2
 904 01c6 9A42     		cmp	r2, r3
 905 01c8 CBD3     		bcc	.L60
 195:can_manager.c **** 		}//if
 196:can_manager.c **** 	}//for
 197:can_manager.c **** 	return 0;
 906              		.loc 1 197 0 is_stmt 1
 907 01ca 0023     		movs	r3, #0
 908              	.L61:
 198:can_manager.c **** }
 909              		.loc 1 198 0 discriminator 1
 910 01cc 1846     		mov	r0, r3
 911 01ce 2437     		adds	r7, r7, #36
 912              		.cfi_def_cfa_offset 4
 913 01d0 BD46     		mov	sp, r7
 914              		.cfi_def_cfa_register 13
 915              		@ sp needed
 916 01d2 5DF8047B 		ldr	r7, [sp], #4
 917              		.cfi_restore 7
 918              		.cfi_def_cfa_offset 0
 919 01d6 7047     		bx	lr
 920              		.cfi_endproc
 921              	.LFE68:
 922              		.size	can_compare, .-can_compare
ARM GAS  D:\Windows\AppData\Local\Temp\ccMSE5zK.s 			page 21


 923              		.section	.text.can_test_send,"ax",%progbits
 924              		.align	2
 925              		.global	can_test_send
 926              		.thumb
 927              		.thumb_func
 928              		.type	can_test_send, %function
 929              	can_test_send:
 930              	.LFB69:
 199:can_manager.c **** 
 200:can_manager.c **** 
 201:can_manager.c **** void can_test_send() {
 931              		.loc 1 201 0
 932              		.cfi_startproc
 933              		@ args = 0, pretend = 0, frame = 24
 934              		@ frame_needed = 1, uses_anonymous_args = 0
 935 0000 80B5     		push	{r7, lr}
 936              		.cfi_def_cfa_offset 8
 937              		.cfi_offset 7, -8
 938              		.cfi_offset 14, -4
 939 0002 86B0     		sub	sp, sp, #24
 940              		.cfi_def_cfa_offset 32
 941 0004 00AF     		add	r7, sp, #0
 942              		.cfi_def_cfa_register 7
 202:can_manager.c **** 	uint8_t i;
 203:can_manager.c **** 	CAN_1_TX_MSG message;
 204:can_manager.c **** 	CAN_1_DATA_BYTES_MSG test_data;
 205:can_manager.c **** 
 206:can_manager.c **** 	message.id = 0x100;
 943              		.loc 1 206 0
 944 0006 4FF48073 		mov	r3, #256
 945 000a BB60     		str	r3, [r7, #8]
 207:can_manager.c **** 	message.rtr = 0;
 946              		.loc 1 207 0
 947 000c 0023     		movs	r3, #0
 948 000e 3B73     		strb	r3, [r7, #12]
 208:can_manager.c **** 	message.ide = 0;
 949              		.loc 1 208 0
 950 0010 0023     		movs	r3, #0
 951 0012 7B73     		strb	r3, [r7, #13]
 209:can_manager.c **** 	message.dlc = 0x08;
 952              		.loc 1 209 0
 953 0014 0823     		movs	r3, #8
 954 0016 BB73     		strb	r3, [r7, #14]
 210:can_manager.c **** 	message.irq = 1;
 955              		.loc 1 210 0
 956 0018 0123     		movs	r3, #1
 957 001a FB73     		strb	r3, [r7, #15]
 211:can_manager.c **** 	message.msg = &test_data;
 958              		.loc 1 211 0
 959 001c 3B46     		mov	r3, r7
 960 001e 3B61     		str	r3, [r7, #16]
 212:can_manager.c **** 
 213:can_manager.c **** 	for(i=0;i<8;i++)
 961              		.loc 1 213 0
 962 0020 0023     		movs	r3, #0
 963 0022 FB75     		strb	r3, [r7, #23]
 964 0024 09E0     		b	.L63
ARM GAS  D:\Windows\AppData\Local\Temp\ccMSE5zK.s 			page 22


 965              	.L64:
 214:can_manager.c **** 		test_data.byte[i] = i;
 966              		.loc 1 214 0 discriminator 3
 967 0026 FB7D     		ldrb	r3, [r7, #23]	@ zero_extendqisi2
 968 0028 07F11802 		add	r2, r7, #24
 969 002c 1344     		add	r3, r3, r2
 970 002e FA7D     		ldrb	r2, [r7, #23]
 971 0030 03F8182C 		strb	r2, [r3, #-24]
 213:can_manager.c **** 		test_data.byte[i] = i;
 972              		.loc 1 213 0 discriminator 3
 973 0034 FB7D     		ldrb	r3, [r7, #23]	@ zero_extendqisi2
 974 0036 0133     		adds	r3, r3, #1
 975 0038 FB75     		strb	r3, [r7, #23]
 976              	.L63:
 213:can_manager.c **** 		test_data.byte[i] = i;
 977              		.loc 1 213 0 is_stmt 0 discriminator 1
 978 003a FB7D     		ldrb	r3, [r7, #23]	@ zero_extendqisi2
 979 003c 072B     		cmp	r3, #7
 980 003e F2D9     		bls	.L64
 215:can_manager.c **** 
 216:can_manager.c **** 	CAN_1_SendMsg(&message);
 981              		.loc 1 216 0 is_stmt 1
 982 0040 07F10803 		add	r3, r7, #8
 983 0044 1846     		mov	r0, r3
 984 0046 FFF7FEFF 		bl	CAN_1_SendMsg
 217:can_manager.c **** } // can_test_send()
 985              		.loc 1 217 0
 986 004a 1837     		adds	r7, r7, #24
 987              		.cfi_def_cfa_offset 8
 988 004c BD46     		mov	sp, r7
 989              		.cfi_def_cfa_register 13
 990              		@ sp needed
 991 004e 80BD     		pop	{r7, pc}
 992              		.cfi_endproc
 993              	.LFE69:
 994              		.size	can_test_send, .-can_test_send
 995              		.section	.text.can_test_receive,"ax",%progbits
 996              		.align	2
 997              		.global	can_test_receive
 998              		.thumb
 999              		.thumb_func
 1000              		.type	can_test_receive, %function
 1001              	can_test_receive:
 1002              	.LFB70:
 218:can_manager.c **** 
 219:can_manager.c **** 
 220:can_manager.c **** void can_test_receive() {
 1003              		.loc 1 220 0
 1004              		.cfi_startproc
 1005              		@ args = 0, pretend = 0, frame = 24
 1006              		@ frame_needed = 1, uses_anonymous_args = 0
 1007 0000 80B5     		push	{r7, lr}
 1008              		.cfi_def_cfa_offset 8
 1009              		.cfi_offset 7, -8
 1010              		.cfi_offset 14, -4
 1011 0002 86B0     		sub	sp, sp, #24
 1012              		.cfi_def_cfa_offset 32
ARM GAS  D:\Windows\AppData\Local\Temp\ccMSE5zK.s 			page 23


 1013 0004 00AF     		add	r7, sp, #0
 1014              		.cfi_def_cfa_register 7
 221:can_manager.c **** 	DataPacket test_msg;
 222:can_manager.c ****     uint8 i;
 223:can_manager.c **** 	
 224:can_manager.c ****     //test packets
 225:can_manager.c ****     for(i=100; i<115; i++) { 
 1015              		.loc 1 225 0
 1016 0006 6423     		movs	r3, #100
 1017 0008 FB75     		strb	r3, [r7, #23]
 1018 000a 1FE0     		b	.L66
 1019              	.L67:
 226:can_manager.c **** 		test_msg.millicounter = millis_timer_ReadCounter();    
 1020              		.loc 1 226 0 discriminator 3
 1021 000c FFF7FEFF 		bl	millis_timer_ReadCounter
 1022 0010 0346     		mov	r3, r0
 1023 0012 7B60     		str	r3, [r7, #4]
 227:can_manager.c **** 		test_msg.id = 0x0923;
 1024              		.loc 1 227 0 discriminator 3
 1025 0014 40F62313 		movw	r3, #2339
 1026 0018 3B81     		strh	r3, [r7, #8]	@ movhi
 228:can_manager.c **** 		test_msg.length = 8;
 1027              		.loc 1 228 0 discriminator 3
 1028 001a 0823     		movs	r3, #8
 1029 001c BB72     		strb	r3, [r7, #10]
 229:can_manager.c **** 		test_msg.data[0]= 1;
 1030              		.loc 1 229 0 discriminator 3
 1031 001e 0123     		movs	r3, #1
 1032 0020 FB72     		strb	r3, [r7, #11]
 230:can_manager.c **** 		test_msg.data[1]= 2;
 1033              		.loc 1 230 0 discriminator 3
 1034 0022 0223     		movs	r3, #2
 1035 0024 3B73     		strb	r3, [r7, #12]
 231:can_manager.c **** 		test_msg.data[2]= 3;
 1036              		.loc 1 231 0 discriminator 3
 1037 0026 0323     		movs	r3, #3
 1038 0028 7B73     		strb	r3, [r7, #13]
 232:can_manager.c **** 		test_msg.data[3]= 4;
 1039              		.loc 1 232 0 discriminator 3
 1040 002a 0423     		movs	r3, #4
 1041 002c BB73     		strb	r3, [r7, #14]
 233:can_manager.c **** 		test_msg.data[4]= 5;
 1042              		.loc 1 233 0 discriminator 3
 1043 002e 0523     		movs	r3, #5
 1044 0030 FB73     		strb	r3, [r7, #15]
 234:can_manager.c **** 		test_msg.data[5]= 6;
 1045              		.loc 1 234 0 discriminator 3
 1046 0032 0623     		movs	r3, #6
 1047 0034 3B74     		strb	r3, [r7, #16]
 235:can_manager.c **** 		test_msg.data[6]= 7;
 1048              		.loc 1 235 0 discriminator 3
 1049 0036 0723     		movs	r3, #7
 1050 0038 7B74     		strb	r3, [r7, #17]
 236:can_manager.c ****         test_msg.data[7]= 8;
 1051              		.loc 1 236 0 discriminator 3
 1052 003a 0823     		movs	r3, #8
 1053 003c BB74     		strb	r3, [r7, #18]
ARM GAS  D:\Windows\AppData\Local\Temp\ccMSE5zK.s 			page 24


 237:can_manager.c **** 		
 238:can_manager.c **** 		msg_recieve(&test_msg);
 1054              		.loc 1 238 0 discriminator 3
 1055 003e 3B1D     		adds	r3, r7, #4
 1056 0040 1846     		mov	r0, r3
 1057 0042 FFF7FEFF 		bl	msg_recieve
 225:can_manager.c **** 		test_msg.millicounter = millis_timer_ReadCounter();    
 1058              		.loc 1 225 0 discriminator 3
 1059 0046 FB7D     		ldrb	r3, [r7, #23]	@ zero_extendqisi2
 1060 0048 0133     		adds	r3, r3, #1
 1061 004a FB75     		strb	r3, [r7, #23]
 1062              	.L66:
 225:can_manager.c **** 		test_msg.millicounter = millis_timer_ReadCounter();    
 1063              		.loc 1 225 0 is_stmt 0 discriminator 1
 1064 004c FB7D     		ldrb	r3, [r7, #23]	@ zero_extendqisi2
 1065 004e 722B     		cmp	r3, #114
 1066 0050 DCD9     		bls	.L67
 239:can_manager.c ****     } //for
 240:can_manager.c **** }
 1067              		.loc 1 240 0 is_stmt 1
 1068 0052 1837     		adds	r7, r7, #24
 1069              		.cfi_def_cfa_offset 8
 1070 0054 BD46     		mov	sp, r7
 1071              		.cfi_def_cfa_register 13
 1072              		@ sp needed
 1073 0056 80BD     		pop	{r7, pc}
 1074              		.cfi_endproc
 1075              	.LFE70:
 1076              		.size	can_test_receive, .-can_test_receive
 1077              		.text
 1078              	.Letext0:
 1079              		.file 2 "d:\\programming\\cypress\\psoc creator\\4.0\\psoc creator\\import\\gnu\\arm\\4.9.3\\arm-n
 1080              		.file 3 "d:\\programming\\cypress\\psoc creator\\4.0\\psoc creator\\import\\gnu\\arm\\4.9.3\\arm-n
 1081              		.file 4 "Generated_Source\\PSoC5/cytypes.h"
 1082              		.file 5 "Generated_Source\\PSoC5/CAN_1.h"
 1083              		.file 6 "data.h"
 1084              		.file 7 "Generated_Source\\PSoC5/core_cm3.h"