ARM GAS  D:\Windows\AppData\Local\Temp\cczWgBSa.s 			page 1


   1              		.syntax unified
   2              		.cpu cortex-m3
   3              		.fpu softvfp
   4              		.eabi_attribute 20, 1
   5              		.eabi_attribute 21, 1
   6              		.eabi_attribute 23, 3
   7              		.eabi_attribute 24, 1
   8              		.eabi_attribute 25, 1
   9              		.eabi_attribute 26, 1
  10              		.eabi_attribute 30, 6
  11              		.eabi_attribute 34, 1
  12              		.eabi_attribute 18, 4
  13              		.thumb
  14              		.file	"Channel_2_Timer.c"
  15              		.text
  16              	.Ltext0:
  17              		.cfi_sections	.debug_frame
  18              		.global	Channel_2_Timer_initVar
  19              		.bss
  20              		.type	Channel_2_Timer_initVar, %object
  21              		.size	Channel_2_Timer_initVar, 1
  22              	Channel_2_Timer_initVar:
  23 0000 00       		.space	1
  24              		.section	.text.Channel_2_Timer_Init,"ax",%progbits
  25              		.align	2
  26              		.global	Channel_2_Timer_Init
  27              		.thumb
  28              		.thumb_func
  29              		.type	Channel_2_Timer_Init, %function
  30              	Channel_2_Timer_Init:
  31              	.LFB0:
  32              		.file 1 "Generated_Source\\PSoC5\\Channel_2_Timer.c"
   1:Generated_Source\PSoC5/Channel_2_Timer.c **** /*******************************************************************************
   2:Generated_Source\PSoC5/Channel_2_Timer.c **** * File Name: Channel_2_Timer.c
   3:Generated_Source\PSoC5/Channel_2_Timer.c **** * Version 2.70
   4:Generated_Source\PSoC5/Channel_2_Timer.c **** *
   5:Generated_Source\PSoC5/Channel_2_Timer.c **** * Description:
   6:Generated_Source\PSoC5/Channel_2_Timer.c **** *  The Timer component consists of a 8, 16, 24 or 32-bit timer with
   7:Generated_Source\PSoC5/Channel_2_Timer.c **** *  a selectable period between 2 and 2^Width - 1.  The timer may free run
   8:Generated_Source\PSoC5/Channel_2_Timer.c **** *  or be used as a capture timer as well.  The capture can be initiated
   9:Generated_Source\PSoC5/Channel_2_Timer.c **** *  by a positive or negative edge signal as well as via software.
  10:Generated_Source\PSoC5/Channel_2_Timer.c **** *  A trigger input can be programmed to enable the timer on rising edge
  11:Generated_Source\PSoC5/Channel_2_Timer.c **** *  falling edge, either edge or continous run.
  12:Generated_Source\PSoC5/Channel_2_Timer.c **** *  Interrupts may be generated due to a terminal count condition
  13:Generated_Source\PSoC5/Channel_2_Timer.c **** *  or a capture event.
  14:Generated_Source\PSoC5/Channel_2_Timer.c **** *
  15:Generated_Source\PSoC5/Channel_2_Timer.c **** * Note:
  16:Generated_Source\PSoC5/Channel_2_Timer.c **** *
  17:Generated_Source\PSoC5/Channel_2_Timer.c **** ********************************************************************************
  18:Generated_Source\PSoC5/Channel_2_Timer.c **** * Copyright 2008-2014, Cypress Semiconductor Corporation.  All rights reserved.
  19:Generated_Source\PSoC5/Channel_2_Timer.c **** * You may use this file only in accordance with the license, terms, conditions,
  20:Generated_Source\PSoC5/Channel_2_Timer.c **** * disclaimers, and limitations in the end user license agreement accompanying
  21:Generated_Source\PSoC5/Channel_2_Timer.c **** * the software package with which this file was provided.
  22:Generated_Source\PSoC5/Channel_2_Timer.c **** ********************************************************************************/
  23:Generated_Source\PSoC5/Channel_2_Timer.c **** 
  24:Generated_Source\PSoC5/Channel_2_Timer.c **** #include "Channel_2_Timer.h"
  25:Generated_Source\PSoC5/Channel_2_Timer.c **** 
ARM GAS  D:\Windows\AppData\Local\Temp\cczWgBSa.s 			page 2


  26:Generated_Source\PSoC5/Channel_2_Timer.c **** uint8 Channel_2_Timer_initVar = 0u;
  27:Generated_Source\PSoC5/Channel_2_Timer.c **** 
  28:Generated_Source\PSoC5/Channel_2_Timer.c **** 
  29:Generated_Source\PSoC5/Channel_2_Timer.c **** /*******************************************************************************
  30:Generated_Source\PSoC5/Channel_2_Timer.c **** * Function Name: Channel_2_Timer_Init
  31:Generated_Source\PSoC5/Channel_2_Timer.c **** ********************************************************************************
  32:Generated_Source\PSoC5/Channel_2_Timer.c **** *
  33:Generated_Source\PSoC5/Channel_2_Timer.c **** * Summary:
  34:Generated_Source\PSoC5/Channel_2_Timer.c **** *  Initialize to the schematic state
  35:Generated_Source\PSoC5/Channel_2_Timer.c **** *
  36:Generated_Source\PSoC5/Channel_2_Timer.c **** * Parameters:
  37:Generated_Source\PSoC5/Channel_2_Timer.c **** *  void
  38:Generated_Source\PSoC5/Channel_2_Timer.c **** *
  39:Generated_Source\PSoC5/Channel_2_Timer.c **** * Return:
  40:Generated_Source\PSoC5/Channel_2_Timer.c **** *  void
  41:Generated_Source\PSoC5/Channel_2_Timer.c **** *
  42:Generated_Source\PSoC5/Channel_2_Timer.c **** *******************************************************************************/
  43:Generated_Source\PSoC5/Channel_2_Timer.c **** void Channel_2_Timer_Init(void) 
  44:Generated_Source\PSoC5/Channel_2_Timer.c **** {
  33              		.loc 1 44 0
  34              		.cfi_startproc
  35              		@ args = 0, pretend = 0, frame = 8
  36              		@ frame_needed = 1, uses_anonymous_args = 0
  37 0000 80B5     		push	{r7, lr}
  38              		.cfi_def_cfa_offset 8
  39              		.cfi_offset 7, -8
  40              		.cfi_offset 14, -4
  41 0002 82B0     		sub	sp, sp, #8
  42              		.cfi_def_cfa_offset 16
  43 0004 00AF     		add	r7, sp, #0
  44              		.cfi_def_cfa_register 7
  45:Generated_Source\PSoC5/Channel_2_Timer.c ****     #if(!Channel_2_Timer_UsingFixedFunction)
  46:Generated_Source\PSoC5/Channel_2_Timer.c ****             /* Interrupt State Backup for Critical Region*/
  47:Generated_Source\PSoC5/Channel_2_Timer.c ****             uint8 Channel_2_Timer_interruptState;
  48:Generated_Source\PSoC5/Channel_2_Timer.c ****     #endif /* Interrupt state back up for Fixed Function only */
  49:Generated_Source\PSoC5/Channel_2_Timer.c **** 
  50:Generated_Source\PSoC5/Channel_2_Timer.c ****     #if (Channel_2_Timer_UsingFixedFunction)
  51:Generated_Source\PSoC5/Channel_2_Timer.c ****         /* Clear all bits but the enable bit (if it's already set) for Timer operation */
  52:Generated_Source\PSoC5/Channel_2_Timer.c ****         Channel_2_Timer_CONTROL &= Channel_2_Timer_CTRL_ENABLE;
  53:Generated_Source\PSoC5/Channel_2_Timer.c **** 
  54:Generated_Source\PSoC5/Channel_2_Timer.c ****         /* Clear the mode bits for continuous run mode */
  55:Generated_Source\PSoC5/Channel_2_Timer.c ****         #if (CY_PSOC5A)
  56:Generated_Source\PSoC5/Channel_2_Timer.c ****             Channel_2_Timer_CONTROL2 &= ((uint8)(~Channel_2_Timer_CTRL_MODE_MASK));
  57:Generated_Source\PSoC5/Channel_2_Timer.c ****         #endif /* Clear bits in CONTROL2 only in PSOC5A */
  58:Generated_Source\PSoC5/Channel_2_Timer.c **** 
  59:Generated_Source\PSoC5/Channel_2_Timer.c ****         #if (CY_PSOC3 || CY_PSOC5LP)
  60:Generated_Source\PSoC5/Channel_2_Timer.c ****             Channel_2_Timer_CONTROL3 &= ((uint8)(~Channel_2_Timer_CTRL_MODE_MASK));
  61:Generated_Source\PSoC5/Channel_2_Timer.c ****         #endif /* CONTROL3 register exists only in PSoC3 OR PSoC5LP */
  62:Generated_Source\PSoC5/Channel_2_Timer.c **** 
  63:Generated_Source\PSoC5/Channel_2_Timer.c ****         /* Check if One Shot mode is enabled i.e. RunMode !=0*/
  64:Generated_Source\PSoC5/Channel_2_Timer.c ****         #if (Channel_2_Timer_RunModeUsed != 0x0u)
  65:Generated_Source\PSoC5/Channel_2_Timer.c ****             /* Set 3rd bit of Control register to enable one shot mode */
  66:Generated_Source\PSoC5/Channel_2_Timer.c ****             Channel_2_Timer_CONTROL |= 0x04u;
  67:Generated_Source\PSoC5/Channel_2_Timer.c ****         #endif /* One Shot enabled only when RunModeUsed is not Continuous*/
  68:Generated_Source\PSoC5/Channel_2_Timer.c **** 
  69:Generated_Source\PSoC5/Channel_2_Timer.c ****         #if (Channel_2_Timer_RunModeUsed == 2)
  70:Generated_Source\PSoC5/Channel_2_Timer.c ****             #if (CY_PSOC5A)
ARM GAS  D:\Windows\AppData\Local\Temp\cczWgBSa.s 			page 3


  71:Generated_Source\PSoC5/Channel_2_Timer.c ****                 /* Set last 2 bits of control2 register if one shot(halt on
  72:Generated_Source\PSoC5/Channel_2_Timer.c ****                 interrupt) is enabled*/
  73:Generated_Source\PSoC5/Channel_2_Timer.c ****                 Channel_2_Timer_CONTROL2 |= 0x03u;
  74:Generated_Source\PSoC5/Channel_2_Timer.c ****             #endif /* Set One-Shot Halt on Interrupt bit in CONTROL2 for PSoC5A */
  75:Generated_Source\PSoC5/Channel_2_Timer.c **** 
  76:Generated_Source\PSoC5/Channel_2_Timer.c ****             #if (CY_PSOC3 || CY_PSOC5LP)
  77:Generated_Source\PSoC5/Channel_2_Timer.c ****                 /* Set last 2 bits of control3 register if one shot(halt on
  78:Generated_Source\PSoC5/Channel_2_Timer.c ****                 interrupt) is enabled*/
  79:Generated_Source\PSoC5/Channel_2_Timer.c ****                 Channel_2_Timer_CONTROL3 |= 0x03u;
  80:Generated_Source\PSoC5/Channel_2_Timer.c ****             #endif /* Set One-Shot Halt on Interrupt bit in CONTROL3 for PSoC3 or PSoC5LP */
  81:Generated_Source\PSoC5/Channel_2_Timer.c **** 
  82:Generated_Source\PSoC5/Channel_2_Timer.c ****         #endif /* Remove section if One Shot Halt on Interrupt is not enabled */
  83:Generated_Source\PSoC5/Channel_2_Timer.c **** 
  84:Generated_Source\PSoC5/Channel_2_Timer.c ****         #if (Channel_2_Timer_UsingHWEnable != 0)
  85:Generated_Source\PSoC5/Channel_2_Timer.c ****             #if (CY_PSOC5A)
  86:Generated_Source\PSoC5/Channel_2_Timer.c ****                 /* Set the default Run Mode of the Timer to Continuous */
  87:Generated_Source\PSoC5/Channel_2_Timer.c ****                 Channel_2_Timer_CONTROL2 |= Channel_2_Timer_CTRL_MODE_PULSEWIDTH;
  88:Generated_Source\PSoC5/Channel_2_Timer.c ****             #endif /* Set Continuous Run Mode in CONTROL2 for PSoC5A */
  89:Generated_Source\PSoC5/Channel_2_Timer.c **** 
  90:Generated_Source\PSoC5/Channel_2_Timer.c ****             #if (CY_PSOC3 || CY_PSOC5LP)
  91:Generated_Source\PSoC5/Channel_2_Timer.c ****                 /* Clear and Set ROD and COD bits of CFG2 register */
  92:Generated_Source\PSoC5/Channel_2_Timer.c ****                 Channel_2_Timer_CONTROL3 &= ((uint8)(~Channel_2_Timer_CTRL_RCOD_MASK));
  93:Generated_Source\PSoC5/Channel_2_Timer.c ****                 Channel_2_Timer_CONTROL3 |= Channel_2_Timer_CTRL_RCOD;
  94:Generated_Source\PSoC5/Channel_2_Timer.c **** 
  95:Generated_Source\PSoC5/Channel_2_Timer.c ****                 /* Clear and Enable the HW enable bit in CFG2 register */
  96:Generated_Source\PSoC5/Channel_2_Timer.c ****                 Channel_2_Timer_CONTROL3 &= ((uint8)(~Channel_2_Timer_CTRL_ENBL_MASK));
  97:Generated_Source\PSoC5/Channel_2_Timer.c ****                 Channel_2_Timer_CONTROL3 |= Channel_2_Timer_CTRL_ENBL;
  98:Generated_Source\PSoC5/Channel_2_Timer.c **** 
  99:Generated_Source\PSoC5/Channel_2_Timer.c ****                 /* Set the default Run Mode of the Timer to Continuous */
 100:Generated_Source\PSoC5/Channel_2_Timer.c ****                 Channel_2_Timer_CONTROL3 |= Channel_2_Timer_CTRL_MODE_CONTINUOUS;
 101:Generated_Source\PSoC5/Channel_2_Timer.c ****             #endif /* Set Continuous Run Mode in CONTROL3 for PSoC3ES3 or PSoC5A */
 102:Generated_Source\PSoC5/Channel_2_Timer.c **** 
 103:Generated_Source\PSoC5/Channel_2_Timer.c ****         #endif /* Configure Run Mode with hardware enable */
 104:Generated_Source\PSoC5/Channel_2_Timer.c **** 
 105:Generated_Source\PSoC5/Channel_2_Timer.c ****         /* Clear and Set SYNCTC and SYNCCMP bits of RT1 register */
 106:Generated_Source\PSoC5/Channel_2_Timer.c ****         Channel_2_Timer_RT1 &= ((uint8)(~Channel_2_Timer_RT1_MASK));
 107:Generated_Source\PSoC5/Channel_2_Timer.c ****         Channel_2_Timer_RT1 |= Channel_2_Timer_SYNC;
 108:Generated_Source\PSoC5/Channel_2_Timer.c **** 
 109:Generated_Source\PSoC5/Channel_2_Timer.c ****         /*Enable DSI Sync all all inputs of the Timer*/
 110:Generated_Source\PSoC5/Channel_2_Timer.c ****         Channel_2_Timer_RT1 &= ((uint8)(~Channel_2_Timer_SYNCDSI_MASK));
 111:Generated_Source\PSoC5/Channel_2_Timer.c ****         Channel_2_Timer_RT1 |= Channel_2_Timer_SYNCDSI_EN;
 112:Generated_Source\PSoC5/Channel_2_Timer.c **** 
 113:Generated_Source\PSoC5/Channel_2_Timer.c ****         /* Set the IRQ to use the status register interrupts */
 114:Generated_Source\PSoC5/Channel_2_Timer.c ****         Channel_2_Timer_CONTROL2 |= Channel_2_Timer_CTRL2_IRQ_SEL;
 115:Generated_Source\PSoC5/Channel_2_Timer.c ****     #endif /* Configuring registers of fixed function implementation */
 116:Generated_Source\PSoC5/Channel_2_Timer.c **** 
 117:Generated_Source\PSoC5/Channel_2_Timer.c ****     /* Set Initial values from Configuration */
 118:Generated_Source\PSoC5/Channel_2_Timer.c ****     Channel_2_Timer_WritePeriod(Channel_2_Timer_INIT_PERIOD);
  45              		.loc 1 118 0
  46 0006 41F28730 		movw	r0, #4999
  47 000a FFF7FEFF 		bl	Channel_2_Timer_WritePeriod
 119:Generated_Source\PSoC5/Channel_2_Timer.c ****     Channel_2_Timer_WriteCounter(Channel_2_Timer_INIT_PERIOD);
  48              		.loc 1 119 0
  49 000e 41F28730 		movw	r0, #4999
  50 0012 FFF7FEFF 		bl	Channel_2_Timer_WriteCounter
 120:Generated_Source\PSoC5/Channel_2_Timer.c **** 
 121:Generated_Source\PSoC5/Channel_2_Timer.c ****     #if (Channel_2_Timer_UsingHWCaptureCounter)/* Capture counter is enabled */
ARM GAS  D:\Windows\AppData\Local\Temp\cczWgBSa.s 			page 4


 122:Generated_Source\PSoC5/Channel_2_Timer.c ****         Channel_2_Timer_CAPTURE_COUNT_CTRL |= Channel_2_Timer_CNTR_ENABLE;
 123:Generated_Source\PSoC5/Channel_2_Timer.c ****         Channel_2_Timer_SetCaptureCount(Channel_2_Timer_INIT_CAPTURE_COUNT);
 124:Generated_Source\PSoC5/Channel_2_Timer.c ****     #endif /* Configure capture counter value */
 125:Generated_Source\PSoC5/Channel_2_Timer.c **** 
 126:Generated_Source\PSoC5/Channel_2_Timer.c ****     #if (!Channel_2_Timer_UsingFixedFunction)
 127:Generated_Source\PSoC5/Channel_2_Timer.c ****         #if (Channel_2_Timer_SoftwareCaptureMode)
 128:Generated_Source\PSoC5/Channel_2_Timer.c ****             Channel_2_Timer_SetCaptureMode(Channel_2_Timer_INIT_CAPTURE_MODE);
 129:Generated_Source\PSoC5/Channel_2_Timer.c ****         #endif /* Set Capture Mode for UDB implementation if capture mode is software controlled */
 130:Generated_Source\PSoC5/Channel_2_Timer.c **** 
 131:Generated_Source\PSoC5/Channel_2_Timer.c ****         #if (Channel_2_Timer_SoftwareTriggerMode)
 132:Generated_Source\PSoC5/Channel_2_Timer.c ****             #if (!Channel_2_Timer_UDB_CONTROL_REG_REMOVED)
 133:Generated_Source\PSoC5/Channel_2_Timer.c ****                 if (0u == (Channel_2_Timer_CONTROL & Channel_2_Timer__B_TIMER__TM_SOFTWARE))
 134:Generated_Source\PSoC5/Channel_2_Timer.c ****                 {
 135:Generated_Source\PSoC5/Channel_2_Timer.c ****                     Channel_2_Timer_SetTriggerMode(Channel_2_Timer_INIT_TRIGGER_MODE);
 136:Generated_Source\PSoC5/Channel_2_Timer.c ****                 }
 137:Generated_Source\PSoC5/Channel_2_Timer.c ****             #endif /* (!Channel_2_Timer_UDB_CONTROL_REG_REMOVED) */
 138:Generated_Source\PSoC5/Channel_2_Timer.c ****         #endif /* Set trigger mode for UDB Implementation if trigger mode is software controlled */
 139:Generated_Source\PSoC5/Channel_2_Timer.c **** 
 140:Generated_Source\PSoC5/Channel_2_Timer.c ****         /* CyEnterCriticalRegion and CyExitCriticalRegion are used to mark following region critica
 141:Generated_Source\PSoC5/Channel_2_Timer.c ****         /* Enter Critical Region*/
 142:Generated_Source\PSoC5/Channel_2_Timer.c ****         Channel_2_Timer_interruptState = CyEnterCriticalSection();
  51              		.loc 1 142 0
  52 0016 FFF7FEFF 		bl	CyEnterCriticalSection
  53 001a 0346     		mov	r3, r0
  54 001c FB71     		strb	r3, [r7, #7]
 143:Generated_Source\PSoC5/Channel_2_Timer.c **** 
 144:Generated_Source\PSoC5/Channel_2_Timer.c ****         /* Use the interrupt output of the status register for IRQ output */
 145:Generated_Source\PSoC5/Channel_2_Timer.c ****         Channel_2_Timer_STATUS_AUX_CTRL |= Channel_2_Timer_STATUS_ACTL_INT_EN_MASK;
  55              		.loc 1 145 0
  56 001e 0C4A     		ldr	r2, .L2
  57 0020 0B4B     		ldr	r3, .L2
  58 0022 1B78     		ldrb	r3, [r3]
  59 0024 DBB2     		uxtb	r3, r3
  60 0026 43F01003 		orr	r3, r3, #16
  61 002a DBB2     		uxtb	r3, r3
  62 002c 1370     		strb	r3, [r2]
 146:Generated_Source\PSoC5/Channel_2_Timer.c **** 
 147:Generated_Source\PSoC5/Channel_2_Timer.c ****         /* Exit Critical Region*/
 148:Generated_Source\PSoC5/Channel_2_Timer.c ****         CyExitCriticalSection(Channel_2_Timer_interruptState);
  63              		.loc 1 148 0
  64 002e FB79     		ldrb	r3, [r7, #7]	@ zero_extendqisi2
  65 0030 1846     		mov	r0, r3
  66 0032 FFF7FEFF 		bl	CyExitCriticalSection
 149:Generated_Source\PSoC5/Channel_2_Timer.c **** 
 150:Generated_Source\PSoC5/Channel_2_Timer.c ****         #if (Channel_2_Timer_EnableTriggerMode)
 151:Generated_Source\PSoC5/Channel_2_Timer.c ****             Channel_2_Timer_EnableTrigger();
  67              		.loc 1 151 0
  68 0036 FFF7FEFF 		bl	Channel_2_Timer_EnableTrigger
 152:Generated_Source\PSoC5/Channel_2_Timer.c ****         #endif /* Set Trigger enable bit for UDB implementation in the control register*/
 153:Generated_Source\PSoC5/Channel_2_Timer.c **** 		
 154:Generated_Source\PSoC5/Channel_2_Timer.c **** 		
 155:Generated_Source\PSoC5/Channel_2_Timer.c ****         #if (Channel_2_Timer_InterruptOnCaptureCount && !Channel_2_Timer_UDB_CONTROL_REG_REMOVED)
 156:Generated_Source\PSoC5/Channel_2_Timer.c ****             Channel_2_Timer_SetInterruptCount(Channel_2_Timer_INIT_INT_CAPTURE_COUNT);
  69              		.loc 1 156 0
  70 003a 0020     		movs	r0, #0
  71 003c FFF7FEFF 		bl	Channel_2_Timer_SetInterruptCount
 157:Generated_Source\PSoC5/Channel_2_Timer.c ****         #endif /* Set interrupt count in UDB implementation if interrupt count feature is checked.*
ARM GAS  D:\Windows\AppData\Local\Temp\cczWgBSa.s 			page 5


 158:Generated_Source\PSoC5/Channel_2_Timer.c **** 
 159:Generated_Source\PSoC5/Channel_2_Timer.c ****         Channel_2_Timer_ClearFIFO();
  72              		.loc 1 159 0
  73 0040 FFF7FEFF 		bl	Channel_2_Timer_ClearFIFO
 160:Generated_Source\PSoC5/Channel_2_Timer.c ****     #endif /* Configure additional features of UDB implementation */
 161:Generated_Source\PSoC5/Channel_2_Timer.c **** 
 162:Generated_Source\PSoC5/Channel_2_Timer.c ****     Channel_2_Timer_SetInterruptMode(Channel_2_Timer_INIT_INTERRUPT_MODE);
  74              		.loc 1 162 0
  75 0044 0320     		movs	r0, #3
  76 0046 FFF7FEFF 		bl	Channel_2_Timer_SetInterruptMode
 163:Generated_Source\PSoC5/Channel_2_Timer.c **** }
  77              		.loc 1 163 0
  78 004a 0837     		adds	r7, r7, #8
  79              		.cfi_def_cfa_offset 8
  80 004c BD46     		mov	sp, r7
  81              		.cfi_def_cfa_register 13
  82              		@ sp needed
  83 004e 80BD     		pop	{r7, pc}
  84              	.L3:
  85              		.align	2
  86              	.L2:
  87 0050 98640040 		.word	1073767576
  88              		.cfi_endproc
  89              	.LFE0:
  90              		.size	Channel_2_Timer_Init, .-Channel_2_Timer_Init
  91              		.section	.text.Channel_2_Timer_Enable,"ax",%progbits
  92              		.align	2
  93              		.global	Channel_2_Timer_Enable
  94              		.thumb
  95              		.thumb_func
  96              		.type	Channel_2_Timer_Enable, %function
  97              	Channel_2_Timer_Enable:
  98              	.LFB1:
 164:Generated_Source\PSoC5/Channel_2_Timer.c **** 
 165:Generated_Source\PSoC5/Channel_2_Timer.c **** 
 166:Generated_Source\PSoC5/Channel_2_Timer.c **** /*******************************************************************************
 167:Generated_Source\PSoC5/Channel_2_Timer.c **** * Function Name: Channel_2_Timer_Enable
 168:Generated_Source\PSoC5/Channel_2_Timer.c **** ********************************************************************************
 169:Generated_Source\PSoC5/Channel_2_Timer.c **** *
 170:Generated_Source\PSoC5/Channel_2_Timer.c **** * Summary:
 171:Generated_Source\PSoC5/Channel_2_Timer.c **** *  Enable the Timer
 172:Generated_Source\PSoC5/Channel_2_Timer.c **** *
 173:Generated_Source\PSoC5/Channel_2_Timer.c **** * Parameters:
 174:Generated_Source\PSoC5/Channel_2_Timer.c **** *  void
 175:Generated_Source\PSoC5/Channel_2_Timer.c **** *
 176:Generated_Source\PSoC5/Channel_2_Timer.c **** * Return:
 177:Generated_Source\PSoC5/Channel_2_Timer.c **** *  void
 178:Generated_Source\PSoC5/Channel_2_Timer.c **** *
 179:Generated_Source\PSoC5/Channel_2_Timer.c **** *******************************************************************************/
 180:Generated_Source\PSoC5/Channel_2_Timer.c **** void Channel_2_Timer_Enable(void) 
 181:Generated_Source\PSoC5/Channel_2_Timer.c **** {
  99              		.loc 1 181 0
 100              		.cfi_startproc
 101              		@ args = 0, pretend = 0, frame = 0
 102              		@ frame_needed = 1, uses_anonymous_args = 0
 103              		@ link register save eliminated.
 104 0000 80B4     		push	{r7}
ARM GAS  D:\Windows\AppData\Local\Temp\cczWgBSa.s 			page 6


 105              		.cfi_def_cfa_offset 4
 106              		.cfi_offset 7, -4
 107 0002 00AF     		add	r7, sp, #0
 108              		.cfi_def_cfa_register 7
 182:Generated_Source\PSoC5/Channel_2_Timer.c ****     /* Globally Enable the Fixed Function Block chosen */
 183:Generated_Source\PSoC5/Channel_2_Timer.c ****     #if (Channel_2_Timer_UsingFixedFunction)
 184:Generated_Source\PSoC5/Channel_2_Timer.c ****         Channel_2_Timer_GLOBAL_ENABLE |= Channel_2_Timer_BLOCK_EN_MASK;
 185:Generated_Source\PSoC5/Channel_2_Timer.c ****         Channel_2_Timer_GLOBAL_STBY_ENABLE |= Channel_2_Timer_BLOCK_STBY_EN_MASK;
 186:Generated_Source\PSoC5/Channel_2_Timer.c ****     #endif /* Set Enable bit for enabling Fixed function timer*/
 187:Generated_Source\PSoC5/Channel_2_Timer.c **** 
 188:Generated_Source\PSoC5/Channel_2_Timer.c ****     /* Remove assignment if control register is removed */
 189:Generated_Source\PSoC5/Channel_2_Timer.c ****     #if (!Channel_2_Timer_UDB_CONTROL_REG_REMOVED || Channel_2_Timer_UsingFixedFunction)
 190:Generated_Source\PSoC5/Channel_2_Timer.c ****         Channel_2_Timer_CONTROL |= Channel_2_Timer_CTRL_ENABLE;
 109              		.loc 1 190 0
 110 0004 054A     		ldr	r2, .L5
 111 0006 054B     		ldr	r3, .L5
 112 0008 1B78     		ldrb	r3, [r3]
 113 000a DBB2     		uxtb	r3, r3
 114 000c 63F07F03 		orn	r3, r3, #127
 115 0010 DBB2     		uxtb	r3, r3
 116 0012 1370     		strb	r3, [r2]
 191:Generated_Source\PSoC5/Channel_2_Timer.c ****     #endif /* Remove assignment if control register is removed */
 192:Generated_Source\PSoC5/Channel_2_Timer.c **** }
 117              		.loc 1 192 0
 118 0014 BD46     		mov	sp, r7
 119              		.cfi_def_cfa_register 13
 120              		@ sp needed
 121 0016 5DF8047B 		ldr	r7, [sp], #4
 122              		.cfi_restore 7
 123              		.cfi_def_cfa_offset 0
 124 001a 7047     		bx	lr
 125              	.L6:
 126              		.align	2
 127              	.L5:
 128 001c 79640040 		.word	1073767545
 129              		.cfi_endproc
 130              	.LFE1:
 131              		.size	Channel_2_Timer_Enable, .-Channel_2_Timer_Enable
 132              		.section	.text.Channel_2_Timer_Start,"ax",%progbits
 133              		.align	2
 134              		.global	Channel_2_Timer_Start
 135              		.thumb
 136              		.thumb_func
 137              		.type	Channel_2_Timer_Start, %function
 138              	Channel_2_Timer_Start:
 139              	.LFB2:
 193:Generated_Source\PSoC5/Channel_2_Timer.c **** 
 194:Generated_Source\PSoC5/Channel_2_Timer.c **** 
 195:Generated_Source\PSoC5/Channel_2_Timer.c **** /*******************************************************************************
 196:Generated_Source\PSoC5/Channel_2_Timer.c **** * Function Name: Channel_2_Timer_Start
 197:Generated_Source\PSoC5/Channel_2_Timer.c **** ********************************************************************************
 198:Generated_Source\PSoC5/Channel_2_Timer.c **** *
 199:Generated_Source\PSoC5/Channel_2_Timer.c **** * Summary:
 200:Generated_Source\PSoC5/Channel_2_Timer.c **** *  The start function initializes the timer with the default values, the
 201:Generated_Source\PSoC5/Channel_2_Timer.c **** *  enables the timerto begin counting.  It does not enable interrupts,
 202:Generated_Source\PSoC5/Channel_2_Timer.c **** *  the EnableInt command should be called if interrupt generation is required.
 203:Generated_Source\PSoC5/Channel_2_Timer.c **** *
ARM GAS  D:\Windows\AppData\Local\Temp\cczWgBSa.s 			page 7


 204:Generated_Source\PSoC5/Channel_2_Timer.c **** * Parameters:
 205:Generated_Source\PSoC5/Channel_2_Timer.c **** *  void
 206:Generated_Source\PSoC5/Channel_2_Timer.c **** *
 207:Generated_Source\PSoC5/Channel_2_Timer.c **** * Return:
 208:Generated_Source\PSoC5/Channel_2_Timer.c **** *  void
 209:Generated_Source\PSoC5/Channel_2_Timer.c **** *
 210:Generated_Source\PSoC5/Channel_2_Timer.c **** * Global variables:
 211:Generated_Source\PSoC5/Channel_2_Timer.c **** *  Channel_2_Timer_initVar: Is modified when this function is called for the
 212:Generated_Source\PSoC5/Channel_2_Timer.c **** *   first time. Is used to ensure that initialization happens only once.
 213:Generated_Source\PSoC5/Channel_2_Timer.c **** *
 214:Generated_Source\PSoC5/Channel_2_Timer.c **** *******************************************************************************/
 215:Generated_Source\PSoC5/Channel_2_Timer.c **** void Channel_2_Timer_Start(void) 
 216:Generated_Source\PSoC5/Channel_2_Timer.c **** {
 140              		.loc 1 216 0
 141              		.cfi_startproc
 142              		@ args = 0, pretend = 0, frame = 0
 143              		@ frame_needed = 1, uses_anonymous_args = 0
 144 0000 80B5     		push	{r7, lr}
 145              		.cfi_def_cfa_offset 8
 146              		.cfi_offset 7, -8
 147              		.cfi_offset 14, -4
 148 0002 00AF     		add	r7, sp, #0
 149              		.cfi_def_cfa_register 7
 217:Generated_Source\PSoC5/Channel_2_Timer.c ****     if(Channel_2_Timer_initVar == 0u)
 150              		.loc 1 217 0
 151 0004 054B     		ldr	r3, .L9
 152 0006 1B78     		ldrb	r3, [r3]	@ zero_extendqisi2
 153 0008 002B     		cmp	r3, #0
 154 000a 04D1     		bne	.L8
 218:Generated_Source\PSoC5/Channel_2_Timer.c ****     {
 219:Generated_Source\PSoC5/Channel_2_Timer.c ****         Channel_2_Timer_Init();
 155              		.loc 1 219 0
 156 000c FFF7FEFF 		bl	Channel_2_Timer_Init
 220:Generated_Source\PSoC5/Channel_2_Timer.c **** 
 221:Generated_Source\PSoC5/Channel_2_Timer.c ****         Channel_2_Timer_initVar = 1u;   /* Clear this bit for Initialization */
 157              		.loc 1 221 0
 158 0010 024B     		ldr	r3, .L9
 159 0012 0122     		movs	r2, #1
 160 0014 1A70     		strb	r2, [r3]
 161              	.L8:
 222:Generated_Source\PSoC5/Channel_2_Timer.c ****     }
 223:Generated_Source\PSoC5/Channel_2_Timer.c **** 
 224:Generated_Source\PSoC5/Channel_2_Timer.c ****     /* Enable the Timer */
 225:Generated_Source\PSoC5/Channel_2_Timer.c ****     Channel_2_Timer_Enable();
 162              		.loc 1 225 0
 163 0016 FFF7FEFF 		bl	Channel_2_Timer_Enable
 226:Generated_Source\PSoC5/Channel_2_Timer.c **** }
 164              		.loc 1 226 0
 165 001a 80BD     		pop	{r7, pc}
 166              	.L10:
 167              		.align	2
 168              	.L9:
 169 001c 00000000 		.word	Channel_2_Timer_initVar
 170              		.cfi_endproc
 171              	.LFE2:
 172              		.size	Channel_2_Timer_Start, .-Channel_2_Timer_Start
 173              		.section	.text.Channel_2_Timer_Stop,"ax",%progbits
ARM GAS  D:\Windows\AppData\Local\Temp\cczWgBSa.s 			page 8


 174              		.align	2
 175              		.global	Channel_2_Timer_Stop
 176              		.thumb
 177              		.thumb_func
 178              		.type	Channel_2_Timer_Stop, %function
 179              	Channel_2_Timer_Stop:
 180              	.LFB3:
 227:Generated_Source\PSoC5/Channel_2_Timer.c **** 
 228:Generated_Source\PSoC5/Channel_2_Timer.c **** 
 229:Generated_Source\PSoC5/Channel_2_Timer.c **** /*******************************************************************************
 230:Generated_Source\PSoC5/Channel_2_Timer.c **** * Function Name: Channel_2_Timer_Stop
 231:Generated_Source\PSoC5/Channel_2_Timer.c **** ********************************************************************************
 232:Generated_Source\PSoC5/Channel_2_Timer.c **** *
 233:Generated_Source\PSoC5/Channel_2_Timer.c **** * Summary:
 234:Generated_Source\PSoC5/Channel_2_Timer.c **** *  The stop function halts the timer, but does not change any modes or disable
 235:Generated_Source\PSoC5/Channel_2_Timer.c **** *  interrupts.
 236:Generated_Source\PSoC5/Channel_2_Timer.c **** *
 237:Generated_Source\PSoC5/Channel_2_Timer.c **** * Parameters:
 238:Generated_Source\PSoC5/Channel_2_Timer.c **** *  void
 239:Generated_Source\PSoC5/Channel_2_Timer.c **** *
 240:Generated_Source\PSoC5/Channel_2_Timer.c **** * Return:
 241:Generated_Source\PSoC5/Channel_2_Timer.c **** *  void
 242:Generated_Source\PSoC5/Channel_2_Timer.c **** *
 243:Generated_Source\PSoC5/Channel_2_Timer.c **** * Side Effects: If the Enable mode is set to Hardware only then this function
 244:Generated_Source\PSoC5/Channel_2_Timer.c **** *               has no effect on the operation of the timer.
 245:Generated_Source\PSoC5/Channel_2_Timer.c **** *
 246:Generated_Source\PSoC5/Channel_2_Timer.c **** *******************************************************************************/
 247:Generated_Source\PSoC5/Channel_2_Timer.c **** void Channel_2_Timer_Stop(void) 
 248:Generated_Source\PSoC5/Channel_2_Timer.c **** {
 181              		.loc 1 248 0
 182              		.cfi_startproc
 183              		@ args = 0, pretend = 0, frame = 0
 184              		@ frame_needed = 1, uses_anonymous_args = 0
 185              		@ link register save eliminated.
 186 0000 80B4     		push	{r7}
 187              		.cfi_def_cfa_offset 4
 188              		.cfi_offset 7, -4
 189 0002 00AF     		add	r7, sp, #0
 190              		.cfi_def_cfa_register 7
 249:Generated_Source\PSoC5/Channel_2_Timer.c ****     /* Disable Timer */
 250:Generated_Source\PSoC5/Channel_2_Timer.c ****     #if(!Channel_2_Timer_UDB_CONTROL_REG_REMOVED || Channel_2_Timer_UsingFixedFunction)
 251:Generated_Source\PSoC5/Channel_2_Timer.c ****         Channel_2_Timer_CONTROL &= ((uint8)(~Channel_2_Timer_CTRL_ENABLE));
 191              		.loc 1 251 0
 192 0004 054A     		ldr	r2, .L12
 193 0006 054B     		ldr	r3, .L12
 194 0008 1B78     		ldrb	r3, [r3]
 195 000a DBB2     		uxtb	r3, r3
 196 000c 03F07F03 		and	r3, r3, #127
 197 0010 DBB2     		uxtb	r3, r3
 198 0012 1370     		strb	r3, [r2]
 252:Generated_Source\PSoC5/Channel_2_Timer.c ****     #endif /* Remove assignment if control register is removed */
 253:Generated_Source\PSoC5/Channel_2_Timer.c **** 
 254:Generated_Source\PSoC5/Channel_2_Timer.c ****     /* Globally disable the Fixed Function Block chosen */
 255:Generated_Source\PSoC5/Channel_2_Timer.c ****     #if (Channel_2_Timer_UsingFixedFunction)
 256:Generated_Source\PSoC5/Channel_2_Timer.c ****         Channel_2_Timer_GLOBAL_ENABLE &= ((uint8)(~Channel_2_Timer_BLOCK_EN_MASK));
 257:Generated_Source\PSoC5/Channel_2_Timer.c ****         Channel_2_Timer_GLOBAL_STBY_ENABLE &= ((uint8)(~Channel_2_Timer_BLOCK_STBY_EN_MASK));
 258:Generated_Source\PSoC5/Channel_2_Timer.c ****     #endif /* Disable global enable for the Timer Fixed function block to stop the Timer*/
ARM GAS  D:\Windows\AppData\Local\Temp\cczWgBSa.s 			page 9


 259:Generated_Source\PSoC5/Channel_2_Timer.c **** }
 199              		.loc 1 259 0
 200 0014 BD46     		mov	sp, r7
 201              		.cfi_def_cfa_register 13
 202              		@ sp needed
 203 0016 5DF8047B 		ldr	r7, [sp], #4
 204              		.cfi_restore 7
 205              		.cfi_def_cfa_offset 0
 206 001a 7047     		bx	lr
 207              	.L13:
 208              		.align	2
 209              	.L12:
 210 001c 79640040 		.word	1073767545
 211              		.cfi_endproc
 212              	.LFE3:
 213              		.size	Channel_2_Timer_Stop, .-Channel_2_Timer_Stop
 214              		.section	.text.Channel_2_Timer_SetInterruptMode,"ax",%progbits
 215              		.align	2
 216              		.global	Channel_2_Timer_SetInterruptMode
 217              		.thumb
 218              		.thumb_func
 219              		.type	Channel_2_Timer_SetInterruptMode, %function
 220              	Channel_2_Timer_SetInterruptMode:
 221              	.LFB4:
 260:Generated_Source\PSoC5/Channel_2_Timer.c **** 
 261:Generated_Source\PSoC5/Channel_2_Timer.c **** 
 262:Generated_Source\PSoC5/Channel_2_Timer.c **** /*******************************************************************************
 263:Generated_Source\PSoC5/Channel_2_Timer.c **** * Function Name: Channel_2_Timer_SetInterruptMode
 264:Generated_Source\PSoC5/Channel_2_Timer.c **** ********************************************************************************
 265:Generated_Source\PSoC5/Channel_2_Timer.c **** *
 266:Generated_Source\PSoC5/Channel_2_Timer.c **** * Summary:
 267:Generated_Source\PSoC5/Channel_2_Timer.c **** *  This function selects which of the interrupt inputs may cause an interrupt.
 268:Generated_Source\PSoC5/Channel_2_Timer.c **** *  The twosources are caputure and terminal.  One, both or neither may
 269:Generated_Source\PSoC5/Channel_2_Timer.c **** *  be selected.
 270:Generated_Source\PSoC5/Channel_2_Timer.c **** *
 271:Generated_Source\PSoC5/Channel_2_Timer.c **** * Parameters:
 272:Generated_Source\PSoC5/Channel_2_Timer.c **** *  interruptMode:   This parameter is used to enable interrups on either/or
 273:Generated_Source\PSoC5/Channel_2_Timer.c **** *                   terminal count or capture.
 274:Generated_Source\PSoC5/Channel_2_Timer.c **** *
 275:Generated_Source\PSoC5/Channel_2_Timer.c **** * Return:
 276:Generated_Source\PSoC5/Channel_2_Timer.c **** *  void
 277:Generated_Source\PSoC5/Channel_2_Timer.c **** *
 278:Generated_Source\PSoC5/Channel_2_Timer.c **** *******************************************************************************/
 279:Generated_Source\PSoC5/Channel_2_Timer.c **** void Channel_2_Timer_SetInterruptMode(uint8 interruptMode) 
 280:Generated_Source\PSoC5/Channel_2_Timer.c **** {
 222              		.loc 1 280 0
 223              		.cfi_startproc
 224              		@ args = 0, pretend = 0, frame = 8
 225              		@ frame_needed = 1, uses_anonymous_args = 0
 226              		@ link register save eliminated.
 227 0000 80B4     		push	{r7}
 228              		.cfi_def_cfa_offset 4
 229              		.cfi_offset 7, -4
 230 0002 83B0     		sub	sp, sp, #12
 231              		.cfi_def_cfa_offset 16
 232 0004 00AF     		add	r7, sp, #0
 233              		.cfi_def_cfa_register 7
ARM GAS  D:\Windows\AppData\Local\Temp\cczWgBSa.s 			page 10


 234 0006 0346     		mov	r3, r0
 235 0008 FB71     		strb	r3, [r7, #7]
 281:Generated_Source\PSoC5/Channel_2_Timer.c ****     Channel_2_Timer_STATUS_MASK = interruptMode;
 236              		.loc 1 281 0
 237 000a 044A     		ldr	r2, .L15
 238 000c FB79     		ldrb	r3, [r7, #7]
 239 000e 1370     		strb	r3, [r2]
 282:Generated_Source\PSoC5/Channel_2_Timer.c **** }
 240              		.loc 1 282 0
 241 0010 0C37     		adds	r7, r7, #12
 242              		.cfi_def_cfa_offset 4
 243 0012 BD46     		mov	sp, r7
 244              		.cfi_def_cfa_register 13
 245              		@ sp needed
 246 0014 5DF8047B 		ldr	r7, [sp], #4
 247              		.cfi_restore 7
 248              		.cfi_def_cfa_offset 0
 249 0018 7047     		bx	lr
 250              	.L16:
 251 001a 00BF     		.align	2
 252              	.L15:
 253 001c 88640040 		.word	1073767560
 254              		.cfi_endproc
 255              	.LFE4:
 256              		.size	Channel_2_Timer_SetInterruptMode, .-Channel_2_Timer_SetInterruptMode
 257              		.section	.text.Channel_2_Timer_SoftwareCapture,"ax",%progbits
 258              		.align	2
 259              		.global	Channel_2_Timer_SoftwareCapture
 260              		.thumb
 261              		.thumb_func
 262              		.type	Channel_2_Timer_SoftwareCapture, %function
 263              	Channel_2_Timer_SoftwareCapture:
 264              	.LFB5:
 283:Generated_Source\PSoC5/Channel_2_Timer.c **** 
 284:Generated_Source\PSoC5/Channel_2_Timer.c **** 
 285:Generated_Source\PSoC5/Channel_2_Timer.c **** /*******************************************************************************
 286:Generated_Source\PSoC5/Channel_2_Timer.c **** * Function Name: Channel_2_Timer_SoftwareCapture
 287:Generated_Source\PSoC5/Channel_2_Timer.c **** ********************************************************************************
 288:Generated_Source\PSoC5/Channel_2_Timer.c **** *
 289:Generated_Source\PSoC5/Channel_2_Timer.c **** * Summary:
 290:Generated_Source\PSoC5/Channel_2_Timer.c **** *  This function forces a capture independent of the capture signal.
 291:Generated_Source\PSoC5/Channel_2_Timer.c **** *
 292:Generated_Source\PSoC5/Channel_2_Timer.c **** * Parameters:
 293:Generated_Source\PSoC5/Channel_2_Timer.c **** *  void
 294:Generated_Source\PSoC5/Channel_2_Timer.c **** *
 295:Generated_Source\PSoC5/Channel_2_Timer.c **** * Return:
 296:Generated_Source\PSoC5/Channel_2_Timer.c **** *  void
 297:Generated_Source\PSoC5/Channel_2_Timer.c **** *
 298:Generated_Source\PSoC5/Channel_2_Timer.c **** * Side Effects:
 299:Generated_Source\PSoC5/Channel_2_Timer.c **** *  An existing hardware capture could be overwritten.
 300:Generated_Source\PSoC5/Channel_2_Timer.c **** *
 301:Generated_Source\PSoC5/Channel_2_Timer.c **** *******************************************************************************/
 302:Generated_Source\PSoC5/Channel_2_Timer.c **** void Channel_2_Timer_SoftwareCapture(void) 
 303:Generated_Source\PSoC5/Channel_2_Timer.c **** {
 265              		.loc 1 303 0
 266              		.cfi_startproc
 267              		@ args = 0, pretend = 0, frame = 0
ARM GAS  D:\Windows\AppData\Local\Temp\cczWgBSa.s 			page 11


 268              		@ frame_needed = 1, uses_anonymous_args = 0
 269              		@ link register save eliminated.
 270 0000 80B4     		push	{r7}
 271              		.cfi_def_cfa_offset 4
 272              		.cfi_offset 7, -4
 273 0002 00AF     		add	r7, sp, #0
 274              		.cfi_def_cfa_register 7
 304:Generated_Source\PSoC5/Channel_2_Timer.c ****     /* Generate a software capture by reading the counter register */
 305:Generated_Source\PSoC5/Channel_2_Timer.c ****     #if(Channel_2_Timer_UsingFixedFunction)
 306:Generated_Source\PSoC5/Channel_2_Timer.c ****         (void)CY_GET_REG16(Channel_2_Timer_COUNTER_LSB_PTR);
 307:Generated_Source\PSoC5/Channel_2_Timer.c ****     #else
 308:Generated_Source\PSoC5/Channel_2_Timer.c ****         (void)CY_GET_REG8(Channel_2_Timer_COUNTER_LSB_PTR_8BIT);
 275              		.loc 1 308 0
 276 0004 024B     		ldr	r3, .L18
 277 0006 1B78     		ldrb	r3, [r3]
 309:Generated_Source\PSoC5/Channel_2_Timer.c ****     #endif/* (Channel_2_Timer_UsingFixedFunction) */
 310:Generated_Source\PSoC5/Channel_2_Timer.c ****     /* Capture Data is now in the FIFO */
 311:Generated_Source\PSoC5/Channel_2_Timer.c **** }
 278              		.loc 1 311 0
 279 0008 BD46     		mov	sp, r7
 280              		.cfi_def_cfa_register 13
 281              		@ sp needed
 282 000a 5DF8047B 		ldr	r7, [sp], #4
 283              		.cfi_restore 7
 284              		.cfi_def_cfa_offset 0
 285 000e 7047     		bx	lr
 286              	.L19:
 287              		.align	2
 288              	.L18:
 289 0010 0C640040 		.word	1073767436
 290              		.cfi_endproc
 291              	.LFE5:
 292              		.size	Channel_2_Timer_SoftwareCapture, .-Channel_2_Timer_SoftwareCapture
 293              		.section	.text.Channel_2_Timer_ReadStatusRegister,"ax",%progbits
 294              		.align	2
 295              		.global	Channel_2_Timer_ReadStatusRegister
 296              		.thumb
 297              		.thumb_func
 298              		.type	Channel_2_Timer_ReadStatusRegister, %function
 299              	Channel_2_Timer_ReadStatusRegister:
 300              	.LFB6:
 312:Generated_Source\PSoC5/Channel_2_Timer.c **** 
 313:Generated_Source\PSoC5/Channel_2_Timer.c **** 
 314:Generated_Source\PSoC5/Channel_2_Timer.c **** /*******************************************************************************
 315:Generated_Source\PSoC5/Channel_2_Timer.c **** * Function Name: Channel_2_Timer_ReadStatusRegister
 316:Generated_Source\PSoC5/Channel_2_Timer.c **** ********************************************************************************
 317:Generated_Source\PSoC5/Channel_2_Timer.c **** *
 318:Generated_Source\PSoC5/Channel_2_Timer.c **** * Summary:
 319:Generated_Source\PSoC5/Channel_2_Timer.c **** *  Reads the status register and returns it's state. This function should use
 320:Generated_Source\PSoC5/Channel_2_Timer.c **** *  defined types for the bit-field information as the bits in this register may
 321:Generated_Source\PSoC5/Channel_2_Timer.c **** *  be permuteable.
 322:Generated_Source\PSoC5/Channel_2_Timer.c **** *
 323:Generated_Source\PSoC5/Channel_2_Timer.c **** * Parameters:
 324:Generated_Source\PSoC5/Channel_2_Timer.c **** *  void
 325:Generated_Source\PSoC5/Channel_2_Timer.c **** *
 326:Generated_Source\PSoC5/Channel_2_Timer.c **** * Return:
 327:Generated_Source\PSoC5/Channel_2_Timer.c **** *  The contents of the status register
ARM GAS  D:\Windows\AppData\Local\Temp\cczWgBSa.s 			page 12


 328:Generated_Source\PSoC5/Channel_2_Timer.c **** *
 329:Generated_Source\PSoC5/Channel_2_Timer.c **** * Side Effects:
 330:Generated_Source\PSoC5/Channel_2_Timer.c **** *  Status register bits may be clear on read.
 331:Generated_Source\PSoC5/Channel_2_Timer.c **** *
 332:Generated_Source\PSoC5/Channel_2_Timer.c **** *******************************************************************************/
 333:Generated_Source\PSoC5/Channel_2_Timer.c **** uint8   Channel_2_Timer_ReadStatusRegister(void) 
 334:Generated_Source\PSoC5/Channel_2_Timer.c **** {
 301              		.loc 1 334 0
 302              		.cfi_startproc
 303              		@ args = 0, pretend = 0, frame = 0
 304              		@ frame_needed = 1, uses_anonymous_args = 0
 305              		@ link register save eliminated.
 306 0000 80B4     		push	{r7}
 307              		.cfi_def_cfa_offset 4
 308              		.cfi_offset 7, -4
 309 0002 00AF     		add	r7, sp, #0
 310              		.cfi_def_cfa_register 7
 335:Generated_Source\PSoC5/Channel_2_Timer.c ****     return (Channel_2_Timer_STATUS);
 311              		.loc 1 335 0
 312 0004 034B     		ldr	r3, .L22
 313 0006 1B78     		ldrb	r3, [r3]
 314 0008 DBB2     		uxtb	r3, r3
 336:Generated_Source\PSoC5/Channel_2_Timer.c **** }
 315              		.loc 1 336 0
 316 000a 1846     		mov	r0, r3
 317 000c BD46     		mov	sp, r7
 318              		.cfi_def_cfa_register 13
 319              		@ sp needed
 320 000e 5DF8047B 		ldr	r7, [sp], #4
 321              		.cfi_restore 7
 322              		.cfi_def_cfa_offset 0
 323 0012 7047     		bx	lr
 324              	.L23:
 325              		.align	2
 326              	.L22:
 327 0014 68640040 		.word	1073767528
 328              		.cfi_endproc
 329              	.LFE6:
 330              		.size	Channel_2_Timer_ReadStatusRegister, .-Channel_2_Timer_ReadStatusRegister
 331              		.section	.text.Channel_2_Timer_ReadControlRegister,"ax",%progbits
 332              		.align	2
 333              		.global	Channel_2_Timer_ReadControlRegister
 334              		.thumb
 335              		.thumb_func
 336              		.type	Channel_2_Timer_ReadControlRegister, %function
 337              	Channel_2_Timer_ReadControlRegister:
 338              	.LFB7:
 337:Generated_Source\PSoC5/Channel_2_Timer.c **** 
 338:Generated_Source\PSoC5/Channel_2_Timer.c **** 
 339:Generated_Source\PSoC5/Channel_2_Timer.c **** #if (!Channel_2_Timer_UDB_CONTROL_REG_REMOVED) /* Remove API if control register is unused */
 340:Generated_Source\PSoC5/Channel_2_Timer.c **** 
 341:Generated_Source\PSoC5/Channel_2_Timer.c **** 
 342:Generated_Source\PSoC5/Channel_2_Timer.c **** /*******************************************************************************
 343:Generated_Source\PSoC5/Channel_2_Timer.c **** * Function Name: Channel_2_Timer_ReadControlRegister
 344:Generated_Source\PSoC5/Channel_2_Timer.c **** ********************************************************************************
 345:Generated_Source\PSoC5/Channel_2_Timer.c **** *
 346:Generated_Source\PSoC5/Channel_2_Timer.c **** * Summary:
ARM GAS  D:\Windows\AppData\Local\Temp\cczWgBSa.s 			page 13


 347:Generated_Source\PSoC5/Channel_2_Timer.c **** *  Reads the control register and returns it's value.
 348:Generated_Source\PSoC5/Channel_2_Timer.c **** *
 349:Generated_Source\PSoC5/Channel_2_Timer.c **** * Parameters:
 350:Generated_Source\PSoC5/Channel_2_Timer.c **** *  void
 351:Generated_Source\PSoC5/Channel_2_Timer.c **** *
 352:Generated_Source\PSoC5/Channel_2_Timer.c **** * Return:
 353:Generated_Source\PSoC5/Channel_2_Timer.c **** *  The contents of the control register
 354:Generated_Source\PSoC5/Channel_2_Timer.c **** *
 355:Generated_Source\PSoC5/Channel_2_Timer.c **** *******************************************************************************/
 356:Generated_Source\PSoC5/Channel_2_Timer.c **** uint8 Channel_2_Timer_ReadControlRegister(void) 
 357:Generated_Source\PSoC5/Channel_2_Timer.c **** {
 339              		.loc 1 357 0
 340              		.cfi_startproc
 341              		@ args = 0, pretend = 0, frame = 0
 342              		@ frame_needed = 1, uses_anonymous_args = 0
 343              		@ link register save eliminated.
 344 0000 80B4     		push	{r7}
 345              		.cfi_def_cfa_offset 4
 346              		.cfi_offset 7, -4
 347 0002 00AF     		add	r7, sp, #0
 348              		.cfi_def_cfa_register 7
 358:Generated_Source\PSoC5/Channel_2_Timer.c ****     #if (!Channel_2_Timer_UDB_CONTROL_REG_REMOVED) 
 359:Generated_Source\PSoC5/Channel_2_Timer.c ****         return ((uint8)Channel_2_Timer_CONTROL);
 349              		.loc 1 359 0
 350 0004 034B     		ldr	r3, .L26
 351 0006 1B78     		ldrb	r3, [r3]
 352 0008 DBB2     		uxtb	r3, r3
 360:Generated_Source\PSoC5/Channel_2_Timer.c ****     #else
 361:Generated_Source\PSoC5/Channel_2_Timer.c ****         return (0);
 362:Generated_Source\PSoC5/Channel_2_Timer.c ****     #endif /* (!Channel_2_Timer_UDB_CONTROL_REG_REMOVED) */
 363:Generated_Source\PSoC5/Channel_2_Timer.c **** }
 353              		.loc 1 363 0
 354 000a 1846     		mov	r0, r3
 355 000c BD46     		mov	sp, r7
 356              		.cfi_def_cfa_register 13
 357              		@ sp needed
 358 000e 5DF8047B 		ldr	r7, [sp], #4
 359              		.cfi_restore 7
 360              		.cfi_def_cfa_offset 0
 361 0012 7047     		bx	lr
 362              	.L27:
 363              		.align	2
 364              	.L26:
 365 0014 79640040 		.word	1073767545
 366              		.cfi_endproc
 367              	.LFE7:
 368              		.size	Channel_2_Timer_ReadControlRegister, .-Channel_2_Timer_ReadControlRegister
 369              		.section	.text.Channel_2_Timer_WriteControlRegister,"ax",%progbits
 370              		.align	2
 371              		.global	Channel_2_Timer_WriteControlRegister
 372              		.thumb
 373              		.thumb_func
 374              		.type	Channel_2_Timer_WriteControlRegister, %function
 375              	Channel_2_Timer_WriteControlRegister:
 376              	.LFB8:
 364:Generated_Source\PSoC5/Channel_2_Timer.c **** 
 365:Generated_Source\PSoC5/Channel_2_Timer.c **** 
ARM GAS  D:\Windows\AppData\Local\Temp\cczWgBSa.s 			page 14


 366:Generated_Source\PSoC5/Channel_2_Timer.c **** /*******************************************************************************
 367:Generated_Source\PSoC5/Channel_2_Timer.c **** * Function Name: Channel_2_Timer_WriteControlRegister
 368:Generated_Source\PSoC5/Channel_2_Timer.c **** ********************************************************************************
 369:Generated_Source\PSoC5/Channel_2_Timer.c **** *
 370:Generated_Source\PSoC5/Channel_2_Timer.c **** * Summary:
 371:Generated_Source\PSoC5/Channel_2_Timer.c **** *  Sets the bit-field of the control register.
 372:Generated_Source\PSoC5/Channel_2_Timer.c **** *
 373:Generated_Source\PSoC5/Channel_2_Timer.c **** * Parameters:
 374:Generated_Source\PSoC5/Channel_2_Timer.c **** *  control: The contents of the control register
 375:Generated_Source\PSoC5/Channel_2_Timer.c **** *
 376:Generated_Source\PSoC5/Channel_2_Timer.c **** * Return:
 377:Generated_Source\PSoC5/Channel_2_Timer.c **** *
 378:Generated_Source\PSoC5/Channel_2_Timer.c **** *******************************************************************************/
 379:Generated_Source\PSoC5/Channel_2_Timer.c **** void Channel_2_Timer_WriteControlRegister(uint8 control) 
 380:Generated_Source\PSoC5/Channel_2_Timer.c **** {
 377              		.loc 1 380 0
 378              		.cfi_startproc
 379              		@ args = 0, pretend = 0, frame = 8
 380              		@ frame_needed = 1, uses_anonymous_args = 0
 381              		@ link register save eliminated.
 382 0000 80B4     		push	{r7}
 383              		.cfi_def_cfa_offset 4
 384              		.cfi_offset 7, -4
 385 0002 83B0     		sub	sp, sp, #12
 386              		.cfi_def_cfa_offset 16
 387 0004 00AF     		add	r7, sp, #0
 388              		.cfi_def_cfa_register 7
 389 0006 0346     		mov	r3, r0
 390 0008 FB71     		strb	r3, [r7, #7]
 381:Generated_Source\PSoC5/Channel_2_Timer.c ****     #if (!Channel_2_Timer_UDB_CONTROL_REG_REMOVED) 
 382:Generated_Source\PSoC5/Channel_2_Timer.c ****         Channel_2_Timer_CONTROL = control;
 391              		.loc 1 382 0
 392 000a 044A     		ldr	r2, .L29
 393 000c FB79     		ldrb	r3, [r7, #7]
 394 000e 1370     		strb	r3, [r2]
 383:Generated_Source\PSoC5/Channel_2_Timer.c ****     #else
 384:Generated_Source\PSoC5/Channel_2_Timer.c ****         control = 0u;
 385:Generated_Source\PSoC5/Channel_2_Timer.c ****     #endif /* (!Channel_2_Timer_UDB_CONTROL_REG_REMOVED) */
 386:Generated_Source\PSoC5/Channel_2_Timer.c **** }
 395              		.loc 1 386 0
 396 0010 0C37     		adds	r7, r7, #12
 397              		.cfi_def_cfa_offset 4
 398 0012 BD46     		mov	sp, r7
 399              		.cfi_def_cfa_register 13
 400              		@ sp needed
 401 0014 5DF8047B 		ldr	r7, [sp], #4
 402              		.cfi_restore 7
 403              		.cfi_def_cfa_offset 0
 404 0018 7047     		bx	lr
 405              	.L30:
 406 001a 00BF     		.align	2
 407              	.L29:
 408 001c 79640040 		.word	1073767545
 409              		.cfi_endproc
 410              	.LFE8:
 411              		.size	Channel_2_Timer_WriteControlRegister, .-Channel_2_Timer_WriteControlRegister
 412              		.section	.text.Channel_2_Timer_ReadPeriod,"ax",%progbits
ARM GAS  D:\Windows\AppData\Local\Temp\cczWgBSa.s 			page 15


 413              		.align	2
 414              		.global	Channel_2_Timer_ReadPeriod
 415              		.thumb
 416              		.thumb_func
 417              		.type	Channel_2_Timer_ReadPeriod, %function
 418              	Channel_2_Timer_ReadPeriod:
 419              	.LFB9:
 387:Generated_Source\PSoC5/Channel_2_Timer.c **** 
 388:Generated_Source\PSoC5/Channel_2_Timer.c **** #endif /* Remove API if control register is unused */
 389:Generated_Source\PSoC5/Channel_2_Timer.c **** 
 390:Generated_Source\PSoC5/Channel_2_Timer.c **** 
 391:Generated_Source\PSoC5/Channel_2_Timer.c **** /*******************************************************************************
 392:Generated_Source\PSoC5/Channel_2_Timer.c **** * Function Name: Channel_2_Timer_ReadPeriod
 393:Generated_Source\PSoC5/Channel_2_Timer.c **** ********************************************************************************
 394:Generated_Source\PSoC5/Channel_2_Timer.c **** *
 395:Generated_Source\PSoC5/Channel_2_Timer.c **** * Summary:
 396:Generated_Source\PSoC5/Channel_2_Timer.c **** *  This function returns the current value of the Period.
 397:Generated_Source\PSoC5/Channel_2_Timer.c **** *
 398:Generated_Source\PSoC5/Channel_2_Timer.c **** * Parameters:
 399:Generated_Source\PSoC5/Channel_2_Timer.c **** *  void
 400:Generated_Source\PSoC5/Channel_2_Timer.c **** *
 401:Generated_Source\PSoC5/Channel_2_Timer.c **** * Return:
 402:Generated_Source\PSoC5/Channel_2_Timer.c **** *  The present value of the counter.
 403:Generated_Source\PSoC5/Channel_2_Timer.c **** *
 404:Generated_Source\PSoC5/Channel_2_Timer.c **** *******************************************************************************/
 405:Generated_Source\PSoC5/Channel_2_Timer.c **** uint32 Channel_2_Timer_ReadPeriod(void) 
 406:Generated_Source\PSoC5/Channel_2_Timer.c **** {
 420              		.loc 1 406 0
 421              		.cfi_startproc
 422              		@ args = 0, pretend = 0, frame = 0
 423              		@ frame_needed = 1, uses_anonymous_args = 0
 424              		@ link register save eliminated.
 425 0000 80B4     		push	{r7}
 426              		.cfi_def_cfa_offset 4
 427              		.cfi_offset 7, -4
 428 0002 00AF     		add	r7, sp, #0
 429              		.cfi_def_cfa_register 7
 407:Generated_Source\PSoC5/Channel_2_Timer.c ****    #if(Channel_2_Timer_UsingFixedFunction)
 408:Generated_Source\PSoC5/Channel_2_Timer.c ****        return ((uint32)CY_GET_REG16(Channel_2_Timer_PERIOD_LSB_PTR));
 409:Generated_Source\PSoC5/Channel_2_Timer.c ****    #else
 410:Generated_Source\PSoC5/Channel_2_Timer.c ****        return (CY_GET_REG32(Channel_2_Timer_PERIOD_LSB_PTR));
 430              		.loc 1 410 0
 431 0004 034B     		ldr	r3, .L33
 432 0006 1B68     		ldr	r3, [r3]
 411:Generated_Source\PSoC5/Channel_2_Timer.c ****    #endif /* (Channel_2_Timer_UsingFixedFunction) */
 412:Generated_Source\PSoC5/Channel_2_Timer.c **** }
 433              		.loc 1 412 0
 434 0008 1846     		mov	r0, r3
 435 000a BD46     		mov	sp, r7
 436              		.cfi_def_cfa_register 13
 437              		@ sp needed
 438 000c 5DF8047B 		ldr	r7, [sp], #4
 439              		.cfi_restore 7
 440              		.cfi_def_cfa_offset 0
 441 0010 7047     		bx	lr
 442              	.L34:
 443 0012 00BF     		.align	2
ARM GAS  D:\Windows\AppData\Local\Temp\cczWgBSa.s 			page 16


 444              	.L33:
 445 0014 2C640040 		.word	1073767468
 446              		.cfi_endproc
 447              	.LFE9:
 448              		.size	Channel_2_Timer_ReadPeriod, .-Channel_2_Timer_ReadPeriod
 449              		.section	.text.Channel_2_Timer_WritePeriod,"ax",%progbits
 450              		.align	2
 451              		.global	Channel_2_Timer_WritePeriod
 452              		.thumb
 453              		.thumb_func
 454              		.type	Channel_2_Timer_WritePeriod, %function
 455              	Channel_2_Timer_WritePeriod:
 456              	.LFB10:
 413:Generated_Source\PSoC5/Channel_2_Timer.c **** 
 414:Generated_Source\PSoC5/Channel_2_Timer.c **** 
 415:Generated_Source\PSoC5/Channel_2_Timer.c **** /*******************************************************************************
 416:Generated_Source\PSoC5/Channel_2_Timer.c **** * Function Name: Channel_2_Timer_WritePeriod
 417:Generated_Source\PSoC5/Channel_2_Timer.c **** ********************************************************************************
 418:Generated_Source\PSoC5/Channel_2_Timer.c **** *
 419:Generated_Source\PSoC5/Channel_2_Timer.c **** * Summary:
 420:Generated_Source\PSoC5/Channel_2_Timer.c **** *  This function is used to change the period of the counter.  The new period
 421:Generated_Source\PSoC5/Channel_2_Timer.c **** *  will be loaded the next time terminal count is detected.
 422:Generated_Source\PSoC5/Channel_2_Timer.c **** *
 423:Generated_Source\PSoC5/Channel_2_Timer.c **** * Parameters:
 424:Generated_Source\PSoC5/Channel_2_Timer.c **** *  period: This value may be between 1 and (2^Resolution)-1.  A value of 0 will
 425:Generated_Source\PSoC5/Channel_2_Timer.c **** *          result in the counter remaining at zero.
 426:Generated_Source\PSoC5/Channel_2_Timer.c **** *
 427:Generated_Source\PSoC5/Channel_2_Timer.c **** * Return:
 428:Generated_Source\PSoC5/Channel_2_Timer.c **** *  void
 429:Generated_Source\PSoC5/Channel_2_Timer.c **** *
 430:Generated_Source\PSoC5/Channel_2_Timer.c **** *******************************************************************************/
 431:Generated_Source\PSoC5/Channel_2_Timer.c **** void Channel_2_Timer_WritePeriod(uint32 period) 
 432:Generated_Source\PSoC5/Channel_2_Timer.c **** {
 457              		.loc 1 432 0
 458              		.cfi_startproc
 459              		@ args = 0, pretend = 0, frame = 8
 460              		@ frame_needed = 1, uses_anonymous_args = 0
 461              		@ link register save eliminated.
 462 0000 80B4     		push	{r7}
 463              		.cfi_def_cfa_offset 4
 464              		.cfi_offset 7, -4
 465 0002 83B0     		sub	sp, sp, #12
 466              		.cfi_def_cfa_offset 16
 467 0004 00AF     		add	r7, sp, #0
 468              		.cfi_def_cfa_register 7
 469 0006 7860     		str	r0, [r7, #4]
 433:Generated_Source\PSoC5/Channel_2_Timer.c ****     #if(Channel_2_Timer_UsingFixedFunction)
 434:Generated_Source\PSoC5/Channel_2_Timer.c ****         uint16 period_temp = (uint16)period;
 435:Generated_Source\PSoC5/Channel_2_Timer.c ****         CY_SET_REG16(Channel_2_Timer_PERIOD_LSB_PTR, period_temp);
 436:Generated_Source\PSoC5/Channel_2_Timer.c ****     #else
 437:Generated_Source\PSoC5/Channel_2_Timer.c ****         CY_SET_REG32(Channel_2_Timer_PERIOD_LSB_PTR, period);
 470              		.loc 1 437 0
 471 0008 034A     		ldr	r2, .L36
 472 000a 7B68     		ldr	r3, [r7, #4]
 473 000c 1360     		str	r3, [r2]
 438:Generated_Source\PSoC5/Channel_2_Timer.c ****     #endif /*Write Period value with appropriate resolution suffix depending on UDB or fixed functi
 439:Generated_Source\PSoC5/Channel_2_Timer.c **** }
ARM GAS  D:\Windows\AppData\Local\Temp\cczWgBSa.s 			page 17


 474              		.loc 1 439 0
 475 000e 0C37     		adds	r7, r7, #12
 476              		.cfi_def_cfa_offset 4
 477 0010 BD46     		mov	sp, r7
 478              		.cfi_def_cfa_register 13
 479              		@ sp needed
 480 0012 5DF8047B 		ldr	r7, [sp], #4
 481              		.cfi_restore 7
 482              		.cfi_def_cfa_offset 0
 483 0016 7047     		bx	lr
 484              	.L37:
 485              		.align	2
 486              	.L36:
 487 0018 2C640040 		.word	1073767468
 488              		.cfi_endproc
 489              	.LFE10:
 490              		.size	Channel_2_Timer_WritePeriod, .-Channel_2_Timer_WritePeriod
 491              		.section	.text.Channel_2_Timer_ReadCapture,"ax",%progbits
 492              		.align	2
 493              		.global	Channel_2_Timer_ReadCapture
 494              		.thumb
 495              		.thumb_func
 496              		.type	Channel_2_Timer_ReadCapture, %function
 497              	Channel_2_Timer_ReadCapture:
 498              	.LFB11:
 440:Generated_Source\PSoC5/Channel_2_Timer.c **** 
 441:Generated_Source\PSoC5/Channel_2_Timer.c **** 
 442:Generated_Source\PSoC5/Channel_2_Timer.c **** /*******************************************************************************
 443:Generated_Source\PSoC5/Channel_2_Timer.c **** * Function Name: Channel_2_Timer_ReadCapture
 444:Generated_Source\PSoC5/Channel_2_Timer.c **** ********************************************************************************
 445:Generated_Source\PSoC5/Channel_2_Timer.c **** *
 446:Generated_Source\PSoC5/Channel_2_Timer.c **** * Summary:
 447:Generated_Source\PSoC5/Channel_2_Timer.c **** *  This function returns the last value captured.
 448:Generated_Source\PSoC5/Channel_2_Timer.c **** *
 449:Generated_Source\PSoC5/Channel_2_Timer.c **** * Parameters:
 450:Generated_Source\PSoC5/Channel_2_Timer.c **** *  void
 451:Generated_Source\PSoC5/Channel_2_Timer.c **** *
 452:Generated_Source\PSoC5/Channel_2_Timer.c **** * Return:
 453:Generated_Source\PSoC5/Channel_2_Timer.c **** *  Present Capture value.
 454:Generated_Source\PSoC5/Channel_2_Timer.c **** *
 455:Generated_Source\PSoC5/Channel_2_Timer.c **** *******************************************************************************/
 456:Generated_Source\PSoC5/Channel_2_Timer.c **** uint32 Channel_2_Timer_ReadCapture(void) 
 457:Generated_Source\PSoC5/Channel_2_Timer.c **** {
 499              		.loc 1 457 0
 500              		.cfi_startproc
 501              		@ args = 0, pretend = 0, frame = 0
 502              		@ frame_needed = 1, uses_anonymous_args = 0
 503              		@ link register save eliminated.
 504 0000 80B4     		push	{r7}
 505              		.cfi_def_cfa_offset 4
 506              		.cfi_offset 7, -4
 507 0002 00AF     		add	r7, sp, #0
 508              		.cfi_def_cfa_register 7
 458:Generated_Source\PSoC5/Channel_2_Timer.c ****    #if(Channel_2_Timer_UsingFixedFunction)
 459:Generated_Source\PSoC5/Channel_2_Timer.c ****        return ((uint32)CY_GET_REG16(Channel_2_Timer_CAPTURE_LSB_PTR));
 460:Generated_Source\PSoC5/Channel_2_Timer.c ****    #else
 461:Generated_Source\PSoC5/Channel_2_Timer.c ****        return (CY_GET_REG32(Channel_2_Timer_CAPTURE_LSB_PTR));
ARM GAS  D:\Windows\AppData\Local\Temp\cczWgBSa.s 			page 18


 509              		.loc 1 461 0
 510 0004 034B     		ldr	r3, .L40
 511 0006 1B68     		ldr	r3, [r3]
 462:Generated_Source\PSoC5/Channel_2_Timer.c ****    #endif /* (Channel_2_Timer_UsingFixedFunction) */
 463:Generated_Source\PSoC5/Channel_2_Timer.c **** }
 512              		.loc 1 463 0
 513 0008 1846     		mov	r0, r3
 514 000a BD46     		mov	sp, r7
 515              		.cfi_def_cfa_register 13
 516              		@ sp needed
 517 000c 5DF8047B 		ldr	r7, [sp], #4
 518              		.cfi_restore 7
 519              		.cfi_def_cfa_offset 0
 520 0010 7047     		bx	lr
 521              	.L41:
 522 0012 00BF     		.align	2
 523              	.L40:
 524 0014 4C640040 		.word	1073767500
 525              		.cfi_endproc
 526              	.LFE11:
 527              		.size	Channel_2_Timer_ReadCapture, .-Channel_2_Timer_ReadCapture
 528              		.section	.text.Channel_2_Timer_WriteCounter,"ax",%progbits
 529              		.align	2
 530              		.global	Channel_2_Timer_WriteCounter
 531              		.thumb
 532              		.thumb_func
 533              		.type	Channel_2_Timer_WriteCounter, %function
 534              	Channel_2_Timer_WriteCounter:
 535              	.LFB12:
 464:Generated_Source\PSoC5/Channel_2_Timer.c **** 
 465:Generated_Source\PSoC5/Channel_2_Timer.c **** 
 466:Generated_Source\PSoC5/Channel_2_Timer.c **** /*******************************************************************************
 467:Generated_Source\PSoC5/Channel_2_Timer.c **** * Function Name: Channel_2_Timer_WriteCounter
 468:Generated_Source\PSoC5/Channel_2_Timer.c **** ********************************************************************************
 469:Generated_Source\PSoC5/Channel_2_Timer.c **** *
 470:Generated_Source\PSoC5/Channel_2_Timer.c **** * Summary:
 471:Generated_Source\PSoC5/Channel_2_Timer.c **** *  This funtion is used to set the counter to a specific value
 472:Generated_Source\PSoC5/Channel_2_Timer.c **** *
 473:Generated_Source\PSoC5/Channel_2_Timer.c **** * Parameters:
 474:Generated_Source\PSoC5/Channel_2_Timer.c **** *  counter:  New counter value.
 475:Generated_Source\PSoC5/Channel_2_Timer.c **** *
 476:Generated_Source\PSoC5/Channel_2_Timer.c **** * Return:
 477:Generated_Source\PSoC5/Channel_2_Timer.c **** *  void
 478:Generated_Source\PSoC5/Channel_2_Timer.c **** *
 479:Generated_Source\PSoC5/Channel_2_Timer.c **** *******************************************************************************/
 480:Generated_Source\PSoC5/Channel_2_Timer.c **** void Channel_2_Timer_WriteCounter(uint32 counter) 
 481:Generated_Source\PSoC5/Channel_2_Timer.c **** {
 536              		.loc 1 481 0
 537              		.cfi_startproc
 538              		@ args = 0, pretend = 0, frame = 8
 539              		@ frame_needed = 1, uses_anonymous_args = 0
 540              		@ link register save eliminated.
 541 0000 80B4     		push	{r7}
 542              		.cfi_def_cfa_offset 4
 543              		.cfi_offset 7, -4
 544 0002 83B0     		sub	sp, sp, #12
 545              		.cfi_def_cfa_offset 16
ARM GAS  D:\Windows\AppData\Local\Temp\cczWgBSa.s 			page 19


 546 0004 00AF     		add	r7, sp, #0
 547              		.cfi_def_cfa_register 7
 548 0006 7860     		str	r0, [r7, #4]
 482:Generated_Source\PSoC5/Channel_2_Timer.c ****    #if(Channel_2_Timer_UsingFixedFunction)
 483:Generated_Source\PSoC5/Channel_2_Timer.c ****         /* This functionality is removed until a FixedFunction HW update to
 484:Generated_Source\PSoC5/Channel_2_Timer.c ****          * allow this register to be written
 485:Generated_Source\PSoC5/Channel_2_Timer.c ****          */
 486:Generated_Source\PSoC5/Channel_2_Timer.c ****         CY_SET_REG16(Channel_2_Timer_COUNTER_LSB_PTR, (uint16)counter);
 487:Generated_Source\PSoC5/Channel_2_Timer.c ****         
 488:Generated_Source\PSoC5/Channel_2_Timer.c ****     #else
 489:Generated_Source\PSoC5/Channel_2_Timer.c ****         CY_SET_REG32(Channel_2_Timer_COUNTER_LSB_PTR, counter);
 549              		.loc 1 489 0
 550 0008 034A     		ldr	r2, .L43
 551 000a 7B68     		ldr	r3, [r7, #4]
 552 000c 1360     		str	r3, [r2]
 490:Generated_Source\PSoC5/Channel_2_Timer.c ****     #endif /* Set Write Counter only for the UDB implementation (Write Counter not available in fix
 491:Generated_Source\PSoC5/Channel_2_Timer.c **** }
 553              		.loc 1 491 0
 554 000e 0C37     		adds	r7, r7, #12
 555              		.cfi_def_cfa_offset 4
 556 0010 BD46     		mov	sp, r7
 557              		.cfi_def_cfa_register 13
 558              		@ sp needed
 559 0012 5DF8047B 		ldr	r7, [sp], #4
 560              		.cfi_restore 7
 561              		.cfi_def_cfa_offset 0
 562 0016 7047     		bx	lr
 563              	.L44:
 564              		.align	2
 565              	.L43:
 566 0018 0C640040 		.word	1073767436
 567              		.cfi_endproc
 568              	.LFE12:
 569              		.size	Channel_2_Timer_WriteCounter, .-Channel_2_Timer_WriteCounter
 570              		.section	.text.Channel_2_Timer_ReadCounter,"ax",%progbits
 571              		.align	2
 572              		.global	Channel_2_Timer_ReadCounter
 573              		.thumb
 574              		.thumb_func
 575              		.type	Channel_2_Timer_ReadCounter, %function
 576              	Channel_2_Timer_ReadCounter:
 577              	.LFB13:
 492:Generated_Source\PSoC5/Channel_2_Timer.c **** 
 493:Generated_Source\PSoC5/Channel_2_Timer.c **** 
 494:Generated_Source\PSoC5/Channel_2_Timer.c **** /*******************************************************************************
 495:Generated_Source\PSoC5/Channel_2_Timer.c **** * Function Name: Channel_2_Timer_ReadCounter
 496:Generated_Source\PSoC5/Channel_2_Timer.c **** ********************************************************************************
 497:Generated_Source\PSoC5/Channel_2_Timer.c **** *
 498:Generated_Source\PSoC5/Channel_2_Timer.c **** * Summary:
 499:Generated_Source\PSoC5/Channel_2_Timer.c **** *  This function returns the current counter value.
 500:Generated_Source\PSoC5/Channel_2_Timer.c **** *
 501:Generated_Source\PSoC5/Channel_2_Timer.c **** * Parameters:
 502:Generated_Source\PSoC5/Channel_2_Timer.c **** *  void
 503:Generated_Source\PSoC5/Channel_2_Timer.c **** *
 504:Generated_Source\PSoC5/Channel_2_Timer.c **** * Return:
 505:Generated_Source\PSoC5/Channel_2_Timer.c **** *  Present compare value.
 506:Generated_Source\PSoC5/Channel_2_Timer.c **** *
ARM GAS  D:\Windows\AppData\Local\Temp\cczWgBSa.s 			page 20


 507:Generated_Source\PSoC5/Channel_2_Timer.c **** *******************************************************************************/
 508:Generated_Source\PSoC5/Channel_2_Timer.c **** uint32 Channel_2_Timer_ReadCounter(void) 
 509:Generated_Source\PSoC5/Channel_2_Timer.c **** {
 578              		.loc 1 509 0
 579              		.cfi_startproc
 580              		@ args = 0, pretend = 0, frame = 0
 581              		@ frame_needed = 1, uses_anonymous_args = 0
 582              		@ link register save eliminated.
 583 0000 80B4     		push	{r7}
 584              		.cfi_def_cfa_offset 4
 585              		.cfi_offset 7, -4
 586 0002 00AF     		add	r7, sp, #0
 587              		.cfi_def_cfa_register 7
 510:Generated_Source\PSoC5/Channel_2_Timer.c ****     /* Force capture by reading Accumulator */
 511:Generated_Source\PSoC5/Channel_2_Timer.c ****     /* Must first do a software capture to be able to read the counter */
 512:Generated_Source\PSoC5/Channel_2_Timer.c ****     /* It is up to the user code to make sure there isn't already captured data in the FIFO */
 513:Generated_Source\PSoC5/Channel_2_Timer.c ****     #if(Channel_2_Timer_UsingFixedFunction)
 514:Generated_Source\PSoC5/Channel_2_Timer.c ****         (void)CY_GET_REG16(Channel_2_Timer_COUNTER_LSB_PTR);
 515:Generated_Source\PSoC5/Channel_2_Timer.c ****     #else
 516:Generated_Source\PSoC5/Channel_2_Timer.c ****         (void)CY_GET_REG8(Channel_2_Timer_COUNTER_LSB_PTR_8BIT);
 588              		.loc 1 516 0
 589 0004 044B     		ldr	r3, .L47
 590 0006 1B78     		ldrb	r3, [r3]
 517:Generated_Source\PSoC5/Channel_2_Timer.c ****     #endif/* (Channel_2_Timer_UsingFixedFunction) */
 518:Generated_Source\PSoC5/Channel_2_Timer.c **** 
 519:Generated_Source\PSoC5/Channel_2_Timer.c ****     /* Read the data from the FIFO (or capture register for Fixed Function)*/
 520:Generated_Source\PSoC5/Channel_2_Timer.c ****     #if(Channel_2_Timer_UsingFixedFunction)
 521:Generated_Source\PSoC5/Channel_2_Timer.c ****         return ((uint32)CY_GET_REG16(Channel_2_Timer_CAPTURE_LSB_PTR));
 522:Generated_Source\PSoC5/Channel_2_Timer.c ****     #else
 523:Generated_Source\PSoC5/Channel_2_Timer.c ****         return (CY_GET_REG32(Channel_2_Timer_CAPTURE_LSB_PTR));
 591              		.loc 1 523 0
 592 0008 044B     		ldr	r3, .L47+4
 593 000a 1B68     		ldr	r3, [r3]
 524:Generated_Source\PSoC5/Channel_2_Timer.c ****     #endif /* (Channel_2_Timer_UsingFixedFunction) */
 525:Generated_Source\PSoC5/Channel_2_Timer.c **** }
 594              		.loc 1 525 0
 595 000c 1846     		mov	r0, r3
 596 000e BD46     		mov	sp, r7
 597              		.cfi_def_cfa_register 13
 598              		@ sp needed
 599 0010 5DF8047B 		ldr	r7, [sp], #4
 600              		.cfi_restore 7
 601              		.cfi_def_cfa_offset 0
 602 0014 7047     		bx	lr
 603              	.L48:
 604 0016 00BF     		.align	2
 605              	.L47:
 606 0018 0C640040 		.word	1073767436
 607 001c 4C640040 		.word	1073767500
 608              		.cfi_endproc
 609              	.LFE13:
 610              		.size	Channel_2_Timer_ReadCounter, .-Channel_2_Timer_ReadCounter
 611              		.section	.text.Channel_2_Timer_EnableTrigger,"ax",%progbits
 612              		.align	2
 613              		.global	Channel_2_Timer_EnableTrigger
 614              		.thumb
 615              		.thumb_func
ARM GAS  D:\Windows\AppData\Local\Temp\cczWgBSa.s 			page 21


 616              		.type	Channel_2_Timer_EnableTrigger, %function
 617              	Channel_2_Timer_EnableTrigger:
 618              	.LFB14:
 526:Generated_Source\PSoC5/Channel_2_Timer.c **** 
 527:Generated_Source\PSoC5/Channel_2_Timer.c **** 
 528:Generated_Source\PSoC5/Channel_2_Timer.c **** #if(!Channel_2_Timer_UsingFixedFunction) /* UDB Specific Functions */
 529:Generated_Source\PSoC5/Channel_2_Timer.c **** 
 530:Generated_Source\PSoC5/Channel_2_Timer.c ****     
 531:Generated_Source\PSoC5/Channel_2_Timer.c **** /*******************************************************************************
 532:Generated_Source\PSoC5/Channel_2_Timer.c ****  * The functions below this point are only available using the UDB
 533:Generated_Source\PSoC5/Channel_2_Timer.c ****  * implementation.  If a feature is selected, then the API is enabled.
 534:Generated_Source\PSoC5/Channel_2_Timer.c ****  ******************************************************************************/
 535:Generated_Source\PSoC5/Channel_2_Timer.c **** 
 536:Generated_Source\PSoC5/Channel_2_Timer.c **** 
 537:Generated_Source\PSoC5/Channel_2_Timer.c **** #if (Channel_2_Timer_SoftwareCaptureMode)
 538:Generated_Source\PSoC5/Channel_2_Timer.c **** 
 539:Generated_Source\PSoC5/Channel_2_Timer.c **** 
 540:Generated_Source\PSoC5/Channel_2_Timer.c **** /*******************************************************************************
 541:Generated_Source\PSoC5/Channel_2_Timer.c **** * Function Name: Channel_2_Timer_SetCaptureMode
 542:Generated_Source\PSoC5/Channel_2_Timer.c **** ********************************************************************************
 543:Generated_Source\PSoC5/Channel_2_Timer.c **** *
 544:Generated_Source\PSoC5/Channel_2_Timer.c **** * Summary:
 545:Generated_Source\PSoC5/Channel_2_Timer.c **** *  This function sets the capture mode to either rising or falling edge.
 546:Generated_Source\PSoC5/Channel_2_Timer.c **** *
 547:Generated_Source\PSoC5/Channel_2_Timer.c **** * Parameters:
 548:Generated_Source\PSoC5/Channel_2_Timer.c **** *  captureMode: This parameter sets the capture mode of the UDB capture feature
 549:Generated_Source\PSoC5/Channel_2_Timer.c **** *  The parameter values are defined using the
 550:Generated_Source\PSoC5/Channel_2_Timer.c **** *  #define Channel_2_Timer__B_TIMER__CM_NONE 0
 551:Generated_Source\PSoC5/Channel_2_Timer.c **** #define Channel_2_Timer__B_TIMER__CM_RISINGEDGE 1
 552:Generated_Source\PSoC5/Channel_2_Timer.c **** #define Channel_2_Timer__B_TIMER__CM_FALLINGEDGE 2
 553:Generated_Source\PSoC5/Channel_2_Timer.c **** #define Channel_2_Timer__B_TIMER__CM_EITHEREDGE 3
 554:Generated_Source\PSoC5/Channel_2_Timer.c **** #define Channel_2_Timer__B_TIMER__CM_SOFTWARE 4
 555:Generated_Source\PSoC5/Channel_2_Timer.c ****  identifiers
 556:Generated_Source\PSoC5/Channel_2_Timer.c **** *  The following are the possible values of the parameter
 557:Generated_Source\PSoC5/Channel_2_Timer.c **** *  Channel_2_Timer__B_TIMER__CM_NONE        - Set Capture mode to None
 558:Generated_Source\PSoC5/Channel_2_Timer.c **** *  Channel_2_Timer__B_TIMER__CM_RISINGEDGE  - Rising edge of Capture input
 559:Generated_Source\PSoC5/Channel_2_Timer.c **** *  Channel_2_Timer__B_TIMER__CM_FALLINGEDGE - Falling edge of Capture input
 560:Generated_Source\PSoC5/Channel_2_Timer.c **** *  Channel_2_Timer__B_TIMER__CM_EITHEREDGE  - Either edge of Capture input
 561:Generated_Source\PSoC5/Channel_2_Timer.c **** *
 562:Generated_Source\PSoC5/Channel_2_Timer.c **** * Return:
 563:Generated_Source\PSoC5/Channel_2_Timer.c **** *  void
 564:Generated_Source\PSoC5/Channel_2_Timer.c **** *
 565:Generated_Source\PSoC5/Channel_2_Timer.c **** *******************************************************************************/
 566:Generated_Source\PSoC5/Channel_2_Timer.c **** void Channel_2_Timer_SetCaptureMode(uint8 captureMode) 
 567:Generated_Source\PSoC5/Channel_2_Timer.c **** {
 568:Generated_Source\PSoC5/Channel_2_Timer.c ****     /* This must only set to two bits of the control register associated */
 569:Generated_Source\PSoC5/Channel_2_Timer.c ****     captureMode = ((uint8)((uint8)captureMode << Channel_2_Timer_CTRL_CAP_MODE_SHIFT));
 570:Generated_Source\PSoC5/Channel_2_Timer.c ****     captureMode &= (Channel_2_Timer_CTRL_CAP_MODE_MASK);
 571:Generated_Source\PSoC5/Channel_2_Timer.c **** 
 572:Generated_Source\PSoC5/Channel_2_Timer.c ****     #if (!Channel_2_Timer_UDB_CONTROL_REG_REMOVED)
 573:Generated_Source\PSoC5/Channel_2_Timer.c ****         /* Clear the Current Setting */
 574:Generated_Source\PSoC5/Channel_2_Timer.c ****         Channel_2_Timer_CONTROL &= ((uint8)(~Channel_2_Timer_CTRL_CAP_MODE_MASK));
 575:Generated_Source\PSoC5/Channel_2_Timer.c **** 
 576:Generated_Source\PSoC5/Channel_2_Timer.c ****         /* Write The New Setting */
 577:Generated_Source\PSoC5/Channel_2_Timer.c ****         Channel_2_Timer_CONTROL |= captureMode;
 578:Generated_Source\PSoC5/Channel_2_Timer.c ****     #endif /* (!Channel_2_Timer_UDB_CONTROL_REG_REMOVED) */
 579:Generated_Source\PSoC5/Channel_2_Timer.c **** }
ARM GAS  D:\Windows\AppData\Local\Temp\cczWgBSa.s 			page 22


 580:Generated_Source\PSoC5/Channel_2_Timer.c **** #endif /* Remove API if Capture Mode is not Software Controlled */
 581:Generated_Source\PSoC5/Channel_2_Timer.c **** 
 582:Generated_Source\PSoC5/Channel_2_Timer.c **** 
 583:Generated_Source\PSoC5/Channel_2_Timer.c **** #if (Channel_2_Timer_SoftwareTriggerMode)
 584:Generated_Source\PSoC5/Channel_2_Timer.c **** 
 585:Generated_Source\PSoC5/Channel_2_Timer.c **** 
 586:Generated_Source\PSoC5/Channel_2_Timer.c **** /*******************************************************************************
 587:Generated_Source\PSoC5/Channel_2_Timer.c **** * Function Name: Channel_2_Timer_SetTriggerMode
 588:Generated_Source\PSoC5/Channel_2_Timer.c **** ********************************************************************************
 589:Generated_Source\PSoC5/Channel_2_Timer.c **** *
 590:Generated_Source\PSoC5/Channel_2_Timer.c **** * Summary:
 591:Generated_Source\PSoC5/Channel_2_Timer.c **** *  This function sets the trigger input mode
 592:Generated_Source\PSoC5/Channel_2_Timer.c **** *
 593:Generated_Source\PSoC5/Channel_2_Timer.c **** * Parameters:
 594:Generated_Source\PSoC5/Channel_2_Timer.c **** *  triggerMode: Pass one of the pre-defined Trigger Modes (except Software)
 595:Generated_Source\PSoC5/Channel_2_Timer.c ****     #define Channel_2_Timer__B_TIMER__TM_NONE 0x00u
 596:Generated_Source\PSoC5/Channel_2_Timer.c ****     #define Channel_2_Timer__B_TIMER__TM_RISINGEDGE 0x04u
 597:Generated_Source\PSoC5/Channel_2_Timer.c ****     #define Channel_2_Timer__B_TIMER__TM_FALLINGEDGE 0x08u
 598:Generated_Source\PSoC5/Channel_2_Timer.c ****     #define Channel_2_Timer__B_TIMER__TM_EITHEREDGE 0x0Cu
 599:Generated_Source\PSoC5/Channel_2_Timer.c ****     #define Channel_2_Timer__B_TIMER__TM_SOFTWARE 0x10u
 600:Generated_Source\PSoC5/Channel_2_Timer.c **** *
 601:Generated_Source\PSoC5/Channel_2_Timer.c **** * Return:
 602:Generated_Source\PSoC5/Channel_2_Timer.c **** *  void
 603:Generated_Source\PSoC5/Channel_2_Timer.c **** *
 604:Generated_Source\PSoC5/Channel_2_Timer.c **** *******************************************************************************/
 605:Generated_Source\PSoC5/Channel_2_Timer.c **** void Channel_2_Timer_SetTriggerMode(uint8 triggerMode) 
 606:Generated_Source\PSoC5/Channel_2_Timer.c **** {
 607:Generated_Source\PSoC5/Channel_2_Timer.c ****     /* This must only set to two bits of the control register associated */
 608:Generated_Source\PSoC5/Channel_2_Timer.c ****     triggerMode &= Channel_2_Timer_CTRL_TRIG_MODE_MASK;
 609:Generated_Source\PSoC5/Channel_2_Timer.c **** 
 610:Generated_Source\PSoC5/Channel_2_Timer.c ****     #if (!Channel_2_Timer_UDB_CONTROL_REG_REMOVED)   /* Remove assignment if control register is re
 611:Generated_Source\PSoC5/Channel_2_Timer.c ****     
 612:Generated_Source\PSoC5/Channel_2_Timer.c ****         /* Clear the Current Setting */
 613:Generated_Source\PSoC5/Channel_2_Timer.c ****         Channel_2_Timer_CONTROL &= ((uint8)(~Channel_2_Timer_CTRL_TRIG_MODE_MASK));
 614:Generated_Source\PSoC5/Channel_2_Timer.c **** 
 615:Generated_Source\PSoC5/Channel_2_Timer.c ****         /* Write The New Setting */
 616:Generated_Source\PSoC5/Channel_2_Timer.c ****         Channel_2_Timer_CONTROL |= (triggerMode | Channel_2_Timer__B_TIMER__TM_SOFTWARE);
 617:Generated_Source\PSoC5/Channel_2_Timer.c ****     #endif /* Remove code section if control register is not used */
 618:Generated_Source\PSoC5/Channel_2_Timer.c **** }
 619:Generated_Source\PSoC5/Channel_2_Timer.c **** #endif /* Remove API if Trigger Mode is not Software Controlled */
 620:Generated_Source\PSoC5/Channel_2_Timer.c **** 
 621:Generated_Source\PSoC5/Channel_2_Timer.c **** #if (Channel_2_Timer_EnableTriggerMode)
 622:Generated_Source\PSoC5/Channel_2_Timer.c **** 
 623:Generated_Source\PSoC5/Channel_2_Timer.c **** 
 624:Generated_Source\PSoC5/Channel_2_Timer.c **** /*******************************************************************************
 625:Generated_Source\PSoC5/Channel_2_Timer.c **** * Function Name: Channel_2_Timer_EnableTrigger
 626:Generated_Source\PSoC5/Channel_2_Timer.c **** ********************************************************************************
 627:Generated_Source\PSoC5/Channel_2_Timer.c **** *
 628:Generated_Source\PSoC5/Channel_2_Timer.c **** * Summary:
 629:Generated_Source\PSoC5/Channel_2_Timer.c **** *  Sets the control bit enabling Hardware Trigger mode
 630:Generated_Source\PSoC5/Channel_2_Timer.c **** *
 631:Generated_Source\PSoC5/Channel_2_Timer.c **** * Parameters:
 632:Generated_Source\PSoC5/Channel_2_Timer.c **** *  void
 633:Generated_Source\PSoC5/Channel_2_Timer.c **** *
 634:Generated_Source\PSoC5/Channel_2_Timer.c **** * Return:
 635:Generated_Source\PSoC5/Channel_2_Timer.c **** *  void
 636:Generated_Source\PSoC5/Channel_2_Timer.c **** *
ARM GAS  D:\Windows\AppData\Local\Temp\cczWgBSa.s 			page 23


 637:Generated_Source\PSoC5/Channel_2_Timer.c **** *******************************************************************************/
 638:Generated_Source\PSoC5/Channel_2_Timer.c **** void Channel_2_Timer_EnableTrigger(void) 
 639:Generated_Source\PSoC5/Channel_2_Timer.c **** {
 619              		.loc 1 639 0
 620              		.cfi_startproc
 621              		@ args = 0, pretend = 0, frame = 0
 622              		@ frame_needed = 1, uses_anonymous_args = 0
 623              		@ link register save eliminated.
 624 0000 80B4     		push	{r7}
 625              		.cfi_def_cfa_offset 4
 626              		.cfi_offset 7, -4
 627 0002 00AF     		add	r7, sp, #0
 628              		.cfi_def_cfa_register 7
 640:Generated_Source\PSoC5/Channel_2_Timer.c ****     #if (!Channel_2_Timer_UDB_CONTROL_REG_REMOVED)   /* Remove assignment if control register is re
 641:Generated_Source\PSoC5/Channel_2_Timer.c ****         Channel_2_Timer_CONTROL |= Channel_2_Timer_CTRL_TRIG_EN;
 629              		.loc 1 641 0
 630 0004 054A     		ldr	r2, .L50
 631 0006 054B     		ldr	r3, .L50
 632 0008 1B78     		ldrb	r3, [r3]
 633 000a DBB2     		uxtb	r3, r3
 634 000c 43F01003 		orr	r3, r3, #16
 635 0010 DBB2     		uxtb	r3, r3
 636 0012 1370     		strb	r3, [r2]
 642:Generated_Source\PSoC5/Channel_2_Timer.c ****     #endif /* Remove code section if control register is not used */
 643:Generated_Source\PSoC5/Channel_2_Timer.c **** }
 637              		.loc 1 643 0
 638 0014 BD46     		mov	sp, r7
 639              		.cfi_def_cfa_register 13
 640              		@ sp needed
 641 0016 5DF8047B 		ldr	r7, [sp], #4
 642              		.cfi_restore 7
 643              		.cfi_def_cfa_offset 0
 644 001a 7047     		bx	lr
 645              	.L51:
 646              		.align	2
 647              	.L50:
 648 001c 79640040 		.word	1073767545
 649              		.cfi_endproc
 650              	.LFE14:
 651              		.size	Channel_2_Timer_EnableTrigger, .-Channel_2_Timer_EnableTrigger
 652              		.section	.text.Channel_2_Timer_DisableTrigger,"ax",%progbits
 653              		.align	2
 654              		.global	Channel_2_Timer_DisableTrigger
 655              		.thumb
 656              		.thumb_func
 657              		.type	Channel_2_Timer_DisableTrigger, %function
 658              	Channel_2_Timer_DisableTrigger:
 659              	.LFB15:
 644:Generated_Source\PSoC5/Channel_2_Timer.c **** 
 645:Generated_Source\PSoC5/Channel_2_Timer.c **** 
 646:Generated_Source\PSoC5/Channel_2_Timer.c **** /*******************************************************************************
 647:Generated_Source\PSoC5/Channel_2_Timer.c **** * Function Name: Channel_2_Timer_DisableTrigger
 648:Generated_Source\PSoC5/Channel_2_Timer.c **** ********************************************************************************
 649:Generated_Source\PSoC5/Channel_2_Timer.c **** *
 650:Generated_Source\PSoC5/Channel_2_Timer.c **** * Summary:
 651:Generated_Source\PSoC5/Channel_2_Timer.c **** *  Clears the control bit enabling Hardware Trigger mode
 652:Generated_Source\PSoC5/Channel_2_Timer.c **** *
ARM GAS  D:\Windows\AppData\Local\Temp\cczWgBSa.s 			page 24


 653:Generated_Source\PSoC5/Channel_2_Timer.c **** * Parameters:
 654:Generated_Source\PSoC5/Channel_2_Timer.c **** *  void
 655:Generated_Source\PSoC5/Channel_2_Timer.c **** *
 656:Generated_Source\PSoC5/Channel_2_Timer.c **** * Return:
 657:Generated_Source\PSoC5/Channel_2_Timer.c **** *  void
 658:Generated_Source\PSoC5/Channel_2_Timer.c **** *
 659:Generated_Source\PSoC5/Channel_2_Timer.c **** *******************************************************************************/
 660:Generated_Source\PSoC5/Channel_2_Timer.c **** void Channel_2_Timer_DisableTrigger(void) 
 661:Generated_Source\PSoC5/Channel_2_Timer.c **** {
 660              		.loc 1 661 0
 661              		.cfi_startproc
 662              		@ args = 0, pretend = 0, frame = 0
 663              		@ frame_needed = 1, uses_anonymous_args = 0
 664              		@ link register save eliminated.
 665 0000 80B4     		push	{r7}
 666              		.cfi_def_cfa_offset 4
 667              		.cfi_offset 7, -4
 668 0002 00AF     		add	r7, sp, #0
 669              		.cfi_def_cfa_register 7
 662:Generated_Source\PSoC5/Channel_2_Timer.c ****     #if (!Channel_2_Timer_UDB_CONTROL_REG_REMOVED )   /* Remove assignment if control register is r
 663:Generated_Source\PSoC5/Channel_2_Timer.c ****         Channel_2_Timer_CONTROL &= ((uint8)(~Channel_2_Timer_CTRL_TRIG_EN));
 670              		.loc 1 663 0
 671 0004 054A     		ldr	r2, .L53
 672 0006 054B     		ldr	r3, .L53
 673 0008 1B78     		ldrb	r3, [r3]
 674 000a DBB2     		uxtb	r3, r3
 675 000c 23F01003 		bic	r3, r3, #16
 676 0010 DBB2     		uxtb	r3, r3
 677 0012 1370     		strb	r3, [r2]
 664:Generated_Source\PSoC5/Channel_2_Timer.c ****     #endif /* Remove code section if control register is not used */
 665:Generated_Source\PSoC5/Channel_2_Timer.c **** }
 678              		.loc 1 665 0
 679 0014 BD46     		mov	sp, r7
 680              		.cfi_def_cfa_register 13
 681              		@ sp needed
 682 0016 5DF8047B 		ldr	r7, [sp], #4
 683              		.cfi_restore 7
 684              		.cfi_def_cfa_offset 0
 685 001a 7047     		bx	lr
 686              	.L54:
 687              		.align	2
 688              	.L53:
 689 001c 79640040 		.word	1073767545
 690              		.cfi_endproc
 691              	.LFE15:
 692              		.size	Channel_2_Timer_DisableTrigger, .-Channel_2_Timer_DisableTrigger
 693              		.section	.text.Channel_2_Timer_SetInterruptCount,"ax",%progbits
 694              		.align	2
 695              		.global	Channel_2_Timer_SetInterruptCount
 696              		.thumb
 697              		.thumb_func
 698              		.type	Channel_2_Timer_SetInterruptCount, %function
 699              	Channel_2_Timer_SetInterruptCount:
 700              	.LFB16:
 666:Generated_Source\PSoC5/Channel_2_Timer.c **** #endif /* Remove API is Trigger Mode is set to None */
 667:Generated_Source\PSoC5/Channel_2_Timer.c **** 
 668:Generated_Source\PSoC5/Channel_2_Timer.c **** #if(Channel_2_Timer_InterruptOnCaptureCount)
ARM GAS  D:\Windows\AppData\Local\Temp\cczWgBSa.s 			page 25


 669:Generated_Source\PSoC5/Channel_2_Timer.c **** 
 670:Generated_Source\PSoC5/Channel_2_Timer.c **** 
 671:Generated_Source\PSoC5/Channel_2_Timer.c **** /*******************************************************************************
 672:Generated_Source\PSoC5/Channel_2_Timer.c **** * Function Name: Channel_2_Timer_SetInterruptCount
 673:Generated_Source\PSoC5/Channel_2_Timer.c **** ********************************************************************************
 674:Generated_Source\PSoC5/Channel_2_Timer.c **** *
 675:Generated_Source\PSoC5/Channel_2_Timer.c **** * Summary:
 676:Generated_Source\PSoC5/Channel_2_Timer.c **** *  This function sets the capture count before an interrupt is triggered.
 677:Generated_Source\PSoC5/Channel_2_Timer.c **** *
 678:Generated_Source\PSoC5/Channel_2_Timer.c **** * Parameters:
 679:Generated_Source\PSoC5/Channel_2_Timer.c **** *  interruptCount:  A value between 0 and 3 is valid.  If the value is 0, then
 680:Generated_Source\PSoC5/Channel_2_Timer.c **** *                   an interrupt will occur each time a capture occurs.
 681:Generated_Source\PSoC5/Channel_2_Timer.c **** *                   A value of 1 to 3 will cause the interrupt
 682:Generated_Source\PSoC5/Channel_2_Timer.c **** *                   to delay by the same number of captures.
 683:Generated_Source\PSoC5/Channel_2_Timer.c **** *
 684:Generated_Source\PSoC5/Channel_2_Timer.c **** * Return:
 685:Generated_Source\PSoC5/Channel_2_Timer.c **** *  void
 686:Generated_Source\PSoC5/Channel_2_Timer.c **** *
 687:Generated_Source\PSoC5/Channel_2_Timer.c **** *******************************************************************************/
 688:Generated_Source\PSoC5/Channel_2_Timer.c **** void Channel_2_Timer_SetInterruptCount(uint8 interruptCount) 
 689:Generated_Source\PSoC5/Channel_2_Timer.c **** {
 701              		.loc 1 689 0
 702              		.cfi_startproc
 703              		@ args = 0, pretend = 0, frame = 8
 704              		@ frame_needed = 1, uses_anonymous_args = 0
 705              		@ link register save eliminated.
 706 0000 80B4     		push	{r7}
 707              		.cfi_def_cfa_offset 4
 708              		.cfi_offset 7, -4
 709 0002 83B0     		sub	sp, sp, #12
 710              		.cfi_def_cfa_offset 16
 711 0004 00AF     		add	r7, sp, #0
 712              		.cfi_def_cfa_register 7
 713 0006 0346     		mov	r3, r0
 714 0008 FB71     		strb	r3, [r7, #7]
 690:Generated_Source\PSoC5/Channel_2_Timer.c ****     /* This must only set to two bits of the control register associated */
 691:Generated_Source\PSoC5/Channel_2_Timer.c ****     interruptCount &= Channel_2_Timer_CTRL_INTCNT_MASK;
 715              		.loc 1 691 0
 716 000a FB79     		ldrb	r3, [r7, #7]
 717 000c 03F00303 		and	r3, r3, #3
 718 0010 FB71     		strb	r3, [r7, #7]
 692:Generated_Source\PSoC5/Channel_2_Timer.c **** 
 693:Generated_Source\PSoC5/Channel_2_Timer.c ****     #if (!Channel_2_Timer_UDB_CONTROL_REG_REMOVED)
 694:Generated_Source\PSoC5/Channel_2_Timer.c ****         /* Clear the Current Setting */
 695:Generated_Source\PSoC5/Channel_2_Timer.c ****         Channel_2_Timer_CONTROL &= ((uint8)(~Channel_2_Timer_CTRL_INTCNT_MASK));
 719              		.loc 1 695 0
 720 0012 0A4A     		ldr	r2, .L56
 721 0014 094B     		ldr	r3, .L56
 722 0016 1B78     		ldrb	r3, [r3]
 723 0018 DBB2     		uxtb	r3, r3
 724 001a 23F00303 		bic	r3, r3, #3
 725 001e DBB2     		uxtb	r3, r3
 726 0020 1370     		strb	r3, [r2]
 696:Generated_Source\PSoC5/Channel_2_Timer.c ****         /* Write The New Setting */
 697:Generated_Source\PSoC5/Channel_2_Timer.c ****         Channel_2_Timer_CONTROL |= interruptCount;
 727              		.loc 1 697 0
 728 0022 0649     		ldr	r1, .L56
ARM GAS  D:\Windows\AppData\Local\Temp\cczWgBSa.s 			page 26


 729 0024 054B     		ldr	r3, .L56
 730 0026 1B78     		ldrb	r3, [r3]
 731 0028 DAB2     		uxtb	r2, r3
 732 002a FB79     		ldrb	r3, [r7, #7]
 733 002c 1343     		orrs	r3, r3, r2
 734 002e DBB2     		uxtb	r3, r3
 735 0030 0B70     		strb	r3, [r1]
 698:Generated_Source\PSoC5/Channel_2_Timer.c ****     #endif /* (!Channel_2_Timer_UDB_CONTROL_REG_REMOVED) */
 699:Generated_Source\PSoC5/Channel_2_Timer.c **** }
 736              		.loc 1 699 0
 737 0032 0C37     		adds	r7, r7, #12
 738              		.cfi_def_cfa_offset 4
 739 0034 BD46     		mov	sp, r7
 740              		.cfi_def_cfa_register 13
 741              		@ sp needed
 742 0036 5DF8047B 		ldr	r7, [sp], #4
 743              		.cfi_restore 7
 744              		.cfi_def_cfa_offset 0
 745 003a 7047     		bx	lr
 746              	.L57:
 747              		.align	2
 748              	.L56:
 749 003c 79640040 		.word	1073767545
 750              		.cfi_endproc
 751              	.LFE16:
 752              		.size	Channel_2_Timer_SetInterruptCount, .-Channel_2_Timer_SetInterruptCount
 753              		.section	.text.Channel_2_Timer_ClearFIFO,"ax",%progbits
 754              		.align	2
 755              		.global	Channel_2_Timer_ClearFIFO
 756              		.thumb
 757              		.thumb_func
 758              		.type	Channel_2_Timer_ClearFIFO, %function
 759              	Channel_2_Timer_ClearFIFO:
 760              	.LFB17:
 700:Generated_Source\PSoC5/Channel_2_Timer.c **** #endif /* Channel_2_Timer_InterruptOnCaptureCount */
 701:Generated_Source\PSoC5/Channel_2_Timer.c **** 
 702:Generated_Source\PSoC5/Channel_2_Timer.c **** 
 703:Generated_Source\PSoC5/Channel_2_Timer.c **** #if (Channel_2_Timer_UsingHWCaptureCounter)
 704:Generated_Source\PSoC5/Channel_2_Timer.c **** 
 705:Generated_Source\PSoC5/Channel_2_Timer.c **** 
 706:Generated_Source\PSoC5/Channel_2_Timer.c **** /*******************************************************************************
 707:Generated_Source\PSoC5/Channel_2_Timer.c **** * Function Name: Channel_2_Timer_SetCaptureCount
 708:Generated_Source\PSoC5/Channel_2_Timer.c **** ********************************************************************************
 709:Generated_Source\PSoC5/Channel_2_Timer.c **** *
 710:Generated_Source\PSoC5/Channel_2_Timer.c **** * Summary:
 711:Generated_Source\PSoC5/Channel_2_Timer.c **** *  This function sets the capture count
 712:Generated_Source\PSoC5/Channel_2_Timer.c **** *
 713:Generated_Source\PSoC5/Channel_2_Timer.c **** * Parameters:
 714:Generated_Source\PSoC5/Channel_2_Timer.c **** *  captureCount: A value between 2 and 127 inclusive is valid.  A value of 1
 715:Generated_Source\PSoC5/Channel_2_Timer.c **** *                to 127 will cause the interrupt to delay by the same number of
 716:Generated_Source\PSoC5/Channel_2_Timer.c **** *                captures.
 717:Generated_Source\PSoC5/Channel_2_Timer.c **** *
 718:Generated_Source\PSoC5/Channel_2_Timer.c **** * Return:
 719:Generated_Source\PSoC5/Channel_2_Timer.c **** *  void
 720:Generated_Source\PSoC5/Channel_2_Timer.c **** *
 721:Generated_Source\PSoC5/Channel_2_Timer.c **** *******************************************************************************/
 722:Generated_Source\PSoC5/Channel_2_Timer.c **** void Channel_2_Timer_SetCaptureCount(uint8 captureCount) 
ARM GAS  D:\Windows\AppData\Local\Temp\cczWgBSa.s 			page 27


 723:Generated_Source\PSoC5/Channel_2_Timer.c **** {
 724:Generated_Source\PSoC5/Channel_2_Timer.c ****     Channel_2_Timer_CAP_COUNT = captureCount;
 725:Generated_Source\PSoC5/Channel_2_Timer.c **** }
 726:Generated_Source\PSoC5/Channel_2_Timer.c **** 
 727:Generated_Source\PSoC5/Channel_2_Timer.c **** 
 728:Generated_Source\PSoC5/Channel_2_Timer.c **** /*******************************************************************************
 729:Generated_Source\PSoC5/Channel_2_Timer.c **** * Function Name: Channel_2_Timer_ReadCaptureCount
 730:Generated_Source\PSoC5/Channel_2_Timer.c **** ********************************************************************************
 731:Generated_Source\PSoC5/Channel_2_Timer.c **** *
 732:Generated_Source\PSoC5/Channel_2_Timer.c **** * Summary:
 733:Generated_Source\PSoC5/Channel_2_Timer.c **** *  This function reads the capture count setting
 734:Generated_Source\PSoC5/Channel_2_Timer.c **** *
 735:Generated_Source\PSoC5/Channel_2_Timer.c **** * Parameters:
 736:Generated_Source\PSoC5/Channel_2_Timer.c **** *  void
 737:Generated_Source\PSoC5/Channel_2_Timer.c **** *
 738:Generated_Source\PSoC5/Channel_2_Timer.c **** * Return:
 739:Generated_Source\PSoC5/Channel_2_Timer.c **** *  Returns the Capture Count Setting
 740:Generated_Source\PSoC5/Channel_2_Timer.c **** *
 741:Generated_Source\PSoC5/Channel_2_Timer.c **** *******************************************************************************/
 742:Generated_Source\PSoC5/Channel_2_Timer.c **** uint8 Channel_2_Timer_ReadCaptureCount(void) 
 743:Generated_Source\PSoC5/Channel_2_Timer.c **** {
 744:Generated_Source\PSoC5/Channel_2_Timer.c ****     return ((uint8)Channel_2_Timer_CAP_COUNT);
 745:Generated_Source\PSoC5/Channel_2_Timer.c **** }
 746:Generated_Source\PSoC5/Channel_2_Timer.c **** #endif /* Channel_2_Timer_UsingHWCaptureCounter */
 747:Generated_Source\PSoC5/Channel_2_Timer.c **** 
 748:Generated_Source\PSoC5/Channel_2_Timer.c **** 
 749:Generated_Source\PSoC5/Channel_2_Timer.c **** /*******************************************************************************
 750:Generated_Source\PSoC5/Channel_2_Timer.c **** * Function Name: Channel_2_Timer_ClearFIFO
 751:Generated_Source\PSoC5/Channel_2_Timer.c **** ********************************************************************************
 752:Generated_Source\PSoC5/Channel_2_Timer.c **** *
 753:Generated_Source\PSoC5/Channel_2_Timer.c **** * Summary:
 754:Generated_Source\PSoC5/Channel_2_Timer.c **** *  This function clears all capture data from the capture FIFO
 755:Generated_Source\PSoC5/Channel_2_Timer.c **** *
 756:Generated_Source\PSoC5/Channel_2_Timer.c **** * Parameters:
 757:Generated_Source\PSoC5/Channel_2_Timer.c **** *  void
 758:Generated_Source\PSoC5/Channel_2_Timer.c **** *
 759:Generated_Source\PSoC5/Channel_2_Timer.c **** * Return:
 760:Generated_Source\PSoC5/Channel_2_Timer.c **** *  void
 761:Generated_Source\PSoC5/Channel_2_Timer.c **** *
 762:Generated_Source\PSoC5/Channel_2_Timer.c **** *******************************************************************************/
 763:Generated_Source\PSoC5/Channel_2_Timer.c **** void Channel_2_Timer_ClearFIFO(void) 
 764:Generated_Source\PSoC5/Channel_2_Timer.c **** {
 761              		.loc 1 764 0
 762              		.cfi_startproc
 763              		@ args = 0, pretend = 0, frame = 0
 764              		@ frame_needed = 1, uses_anonymous_args = 0
 765 0000 80B5     		push	{r7, lr}
 766              		.cfi_def_cfa_offset 8
 767              		.cfi_offset 7, -8
 768              		.cfi_offset 14, -4
 769 0002 00AF     		add	r7, sp, #0
 770              		.cfi_def_cfa_register 7
 765:Generated_Source\PSoC5/Channel_2_Timer.c ****     while(0u != (Channel_2_Timer_ReadStatusRegister() & Channel_2_Timer_STATUS_FIFONEMP))
 771              		.loc 1 765 0
 772 0004 01E0     		b	.L59
 773              	.L60:
 766:Generated_Source\PSoC5/Channel_2_Timer.c ****     {
ARM GAS  D:\Windows\AppData\Local\Temp\cczWgBSa.s 			page 28


 767:Generated_Source\PSoC5/Channel_2_Timer.c ****         (void)Channel_2_Timer_ReadCapture();
 774              		.loc 1 767 0
 775 0006 FFF7FEFF 		bl	Channel_2_Timer_ReadCapture
 776              	.L59:
 765:Generated_Source\PSoC5/Channel_2_Timer.c ****     while(0u != (Channel_2_Timer_ReadStatusRegister() & Channel_2_Timer_STATUS_FIFONEMP))
 777              		.loc 1 765 0
 778 000a FFF7FEFF 		bl	Channel_2_Timer_ReadStatusRegister
 779 000e 0346     		mov	r3, r0
 780 0010 03F00803 		and	r3, r3, #8
 781 0014 002B     		cmp	r3, #0
 782 0016 F6D1     		bne	.L60
 768:Generated_Source\PSoC5/Channel_2_Timer.c ****     }
 769:Generated_Source\PSoC5/Channel_2_Timer.c **** }
 783              		.loc 1 769 0
 784 0018 80BD     		pop	{r7, pc}
 785              		.cfi_endproc
 786              	.LFE17:
 787              		.size	Channel_2_Timer_ClearFIFO, .-Channel_2_Timer_ClearFIFO
 788 001a 00BF     		.text
 789              	.Letext0:
 790              		.file 2 "Generated_Source\\PSoC5\\cytypes.h"