ARM GAS  D:\Windows\AppData\Local\Temp\cc8dFuEm.s 			page 1


   1              		.syntax unified
   2              		.cpu cortex-m3
   3              		.fpu softvfp
   4              		.eabi_attribute 20, 1
   5              		.eabi_attribute 21, 1
   6              		.eabi_attribute 23, 3
   7              		.eabi_attribute 24, 1
   8              		.eabi_attribute 25, 1
   9              		.eabi_attribute 26, 1
  10              		.eabi_attribute 30, 6
  11              		.eabi_attribute 34, 1
  12              		.eabi_attribute 18, 4
  13              		.thumb
  14              		.file	"main.c"
  15              		.text
  16              	.Ltext0:
  17              		.cfi_sections	.debug_frame
  18              		.section	.text.main,"ax",%progbits
  19              		.align	2
  20              		.global	main
  21              		.thumb
  22              		.thumb_func
  23              		.type	main, %function
  24              	main:
  25              	.LFB63:
  26              		.file 1 "main.c"
   1:main.c        **** /* Node-Beaver
   2:main.c        **** 	 This node logs data via CAN and presents the data to the outside world.
   3:main.c        ****  */
   4:main.c        **** 
   5:main.c        **** #include <project.h>
   6:main.c        **** #include "data.h"
   7:main.c        **** #include "can_manager.h"
   8:main.c        **** #include "usb_manager.h"
   9:main.c        **** #include "sd_manager.h"
  10:main.c        **** 
  11:main.c        **** 
  12:main.c        **** int main(void) {
  27              		.loc 1 12 0
  28              		.cfi_startproc
  29              		@ args = 0, pretend = 0, frame = 8
  30              		@ frame_needed = 1, uses_anonymous_args = 0
  31 0000 80B5     		push	{r7, lr}
  32              		.cfi_def_cfa_offset 8
  33              		.cfi_offset 7, -8
  34              		.cfi_offset 14, -4
  35 0002 82B0     		sub	sp, sp, #8
  36              		.cfi_def_cfa_offset 16
  37 0004 00AF     		add	r7, sp, #0
  38              		.cfi_def_cfa_register 7
  13:main.c        **** 	CYGlobalIntEnable;      //Uncomment this line to enable global interrupts 
  39              		.loc 1 13 0
  40              	@ 13 "main.c" 1
  41 0006 62B6     		CPSIE   i
  42              	@ 0 "" 2
  14:main.c        **** 
  15:main.c        **** 	uint8_t atomic_state = CyEnterCriticalSection(); // BEGIN ATOMIC
ARM GAS  D:\Windows\AppData\Local\Temp\cc8dFuEm.s 			page 2


  43              		.loc 1 15 0
  44              		.thumb
  45 0008 FFF7FEFF 		bl	CyEnterCriticalSection
  46 000c 0346     		mov	r3, r0
  47 000e FB71     		strb	r3, [r7, #7]
  16:main.c        **** 	can_init();
  48              		.loc 1 16 0
  49 0010 FFF7FEFF 		bl	can_init
  17:main.c        **** 	sd_init();
  50              		.loc 1 17 0
  51 0014 FFF7FEFF 		bl	sd_init
  18:main.c        **** 	//usb_init();
  19:main.c        **** 	//wdt_init();
  20:main.c        **** 	CyDelay(500);				//give some time to finish setup
  52              		.loc 1 20 0
  53 0018 4FF4FA70 		mov	r0, #500
  54 001c FFF7FEFF 		bl	CyDelay
  21:main.c        **** 	CyExitCriticalSection(atomic_state);               // END ATOMIC
  55              		.loc 1 21 0
  56 0020 FB79     		ldrb	r3, [r7, #7]	@ zero_extendqisi2
  57 0022 1846     		mov	r0, r3
  58 0024 FFF7FEFF 		bl	CyExitCriticalSection
  59              	.L2:
  22:main.c        **** 	
  23:main.c        **** 	for(;;)	{
  24:main.c        **** 	    //can_test_send();
  25:main.c        **** 		//can_test_receive();
  26:main.c        **** 		sd_writetest();
  60              		.loc 1 26 0 discriminator 1
  61 0028 FFF7FEFF 		bl	sd_writetest
  27:main.c        **** 		CyDelay(1000);
  62              		.loc 1 27 0 discriminator 1
  63 002c 4FF47A70 		mov	r0, #1000
  64 0030 FFF7FEFF 		bl	CyDelay
  28:main.c        **** 	} // main loop
  65              		.loc 1 28 0 discriminator 1
  66 0034 F8E7     		b	.L2
  67              		.cfi_endproc
  68              	.LFE63:
  69              		.size	main, .-main
  70 0036 00BF     		.section	.text.msg_recieve,"ax",%progbits
  71              		.align	2
  72              		.global	msg_recieve
  73              		.thumb
  74              		.thumb_func
  75              		.type	msg_recieve, %function
  76              	msg_recieve:
  77              	.LFB64:
  29:main.c        **** 
  30:main.c        **** 	return 0;
  31:main.c        **** } // main()
  32:main.c        **** 
  33:main.c        **** /* when a can message is recieved will immediately save messages to external devices
  34:main.c        **** 	- transmit over xbee
  35:main.c        **** 	- write to sd
  36:main.c        **** 	- write to usb	*/
  37:main.c        **** void msg_recieve(DataPacket * msg) {
ARM GAS  D:\Windows\AppData\Local\Temp\cc8dFuEm.s 			page 3


  78              		.loc 1 37 0
  79              		.cfi_startproc
  80              		@ args = 0, pretend = 0, frame = 8
  81              		@ frame_needed = 1, uses_anonymous_args = 0
  82 0000 80B5     		push	{r7, lr}
  83              		.cfi_def_cfa_offset 8
  84              		.cfi_offset 7, -8
  85              		.cfi_offset 14, -4
  86 0002 82B0     		sub	sp, sp, #8
  87              		.cfi_def_cfa_offset 16
  88 0004 00AF     		add	r7, sp, #0
  89              		.cfi_def_cfa_register 7
  90 0006 7860     		str	r0, [r7, #4]
  38:main.c        **** 	if(can_process(msg)) {	//if message is new data value
  91              		.loc 1 38 0
  92 0008 7868     		ldr	r0, [r7, #4]
  93 000a FFF7FEFF 		bl	can_process
  39:main.c        **** 		//sd_buffer(msg);
  40:main.c        **** 		//usb_write(msg);
  41:main.c        **** 	}
  42:main.c        **** }
  94              		.loc 1 42 0
  95 000e 0837     		adds	r7, r7, #8
  96              		.cfi_def_cfa_offset 8
  97 0010 BD46     		mov	sp, r7
  98              		.cfi_def_cfa_register 13
  99              		@ sp needed
 100 0012 80BD     		pop	{r7, pc}
 101              		.cfi_endproc
 102              	.LFE64:
 103              		.size	msg_recieve, .-msg_recieve
 104              		.text
 105              	.Letext0:
 106              		.file 2 "d:\\programming\\cypress\\psoc creator\\4.0\\psoc creator\\import\\gnu\\arm\\4.9.3\\arm-n
 107              		.file 3 "d:\\programming\\cypress\\psoc creator\\4.0\\psoc creator\\import\\gnu\\arm\\4.9.3\\arm-n
 108              		.file 4 "data.h"
 109              		.file 5 "Generated_Source\\PSoC5/core_cm3.h"