ARM GAS  D:\Windows\AppData\Local\Temp\ccX1CAiv.s 			page 1


   1              		.syntax unified
   2              		.cpu cortex-m3
   3              		.fpu softvfp
   4              		.eabi_attribute 20, 1
   5              		.eabi_attribute 21, 1
   6              		.eabi_attribute 23, 3
   7              		.eabi_attribute 24, 1
   8              		.eabi_attribute 25, 1
   9              		.eabi_attribute 26, 1
  10              		.eabi_attribute 30, 6
  11              		.eabi_attribute 34, 1
  12              		.eabi_attribute 18, 4
  13              		.thumb
  14              		.file	"sd_manager.c"
  15              		.text
  16              	.Ltext0:
  17              		.cfi_sections	.debug_frame
  18              		.comm	pfile,4,4
  19              		.global	sd_ok
  20              		.bss
  21              		.type	sd_ok, %object
  22              		.size	sd_ok, 1
  23              	sd_ok:
  24 0000 00       		.space	1
  25              		.global	set_time_file
  26              		.section	.rodata
  27              		.align	2
  28              		.type	set_time_file, %object
  29              		.size	set_time_file, 14
  30              	set_time_file:
  31 0000 5C736574 		.ascii	"\\set_time.txt\000"
  31      5F74696D 
  31      652E7478 
  31      7400
  32              		.global	format_file
  33 000e 0000     		.align	2
  34              		.type	format_file, %object
  35              		.size	format_file, 12
  36              	format_file:
  37 0010 5C666F72 		.ascii	"\\format.txt\000"
  37      6D61742E 
  37      74787400 
  38              		.comm	sd_queue,16384,4
  39              		.global	sd_head
  40              		.bss
  41 0001 00       		.align	1
  42              		.type	sd_head, %object
  43              		.size	sd_head, 2
  44              	sd_head:
  45 0002 0000     		.space	2
  46              		.global	sd_tail
  47              		.align	1
  48              		.type	sd_tail, %object
  49              		.size	sd_tail, 2
  50              	sd_tail:
  51 0004 0000     		.space	2
  52              		.section	.text.power_interrupt,"ax",%progbits
ARM GAS  D:\Windows\AppData\Local\Temp\ccX1CAiv.s 			page 2


  53              		.align	2
  54              		.global	power_interrupt
  55              		.thumb
  56              		.thumb_func
  57              		.type	power_interrupt, %function
  58              	power_interrupt:
  59              	.LFB63:
  60              		.file 1 "sd_manager.c"
   1:sd_manager.c  **** #include "sd_manager.h"
   2:sd_manager.c  **** 
   3:sd_manager.c  **** 
   4:sd_manager.c  **** FS_FILE* pfile;
   5:sd_manager.c  **** uint8_t sd_ok = 0;
   6:sd_manager.c  **** 
   7:sd_manager.c  **** const char set_time_file[] = "\\set_time.txt";
   8:sd_manager.c  **** const char format_file[] = "\\format.txt";
   9:sd_manager.c  **** 
  10:sd_manager.c  **** DataPacket sd_queue[SD_QUEUE_LENGTH];
  11:sd_manager.c  **** uint16_t sd_head = 0, sd_tail = 0;
  12:sd_manager.c  **** 
  13:sd_manager.c  **** 	
  14:sd_manager.c  **** CY_ISR(power_interrupt) {
  61              		.loc 1 14 0
  62              		.cfi_startproc
  63              		@ args = 0, pretend = 0, frame = 0
  64              		@ frame_needed = 1, uses_anonymous_args = 0
  65 0000 80B5     		push	{r7, lr}
  66              		.cfi_def_cfa_offset 8
  67              		.cfi_offset 7, -8
  68              		.cfi_offset 14, -4
  69 0002 00AF     		add	r7, sp, #0
  70              		.cfi_def_cfa_register 7
  15:sd_manager.c  **** 	sd_stop();
  71              		.loc 1 15 0
  72 0004 FFF7FEFF 		bl	sd_stop
  16:sd_manager.c  **** 	power_isr_ClearPending();
  73              		.loc 1 16 0
  74 0008 FFF7FEFF 		bl	power_isr_ClearPending
  17:sd_manager.c  ****     CyDelay(3000);
  75              		.loc 1 17 0
  76 000c 40F6B830 		movw	r0, #3000
  77 0010 FFF7FEFF 		bl	CyDelay
  78              	.L2:
  18:sd_manager.c  ****     //CySoftwareReset();
  19:sd_manager.c  ****     for(;;);	// halt program until IC shuts down
  79              		.loc 1 19 0 discriminator 1
  80 0014 FEE7     		b	.L2
  81              		.cfi_endproc
  82              	.LFE63:
  83              		.size	power_interrupt, .-power_interrupt
  84 0016 00BF     		.section	.text.sd_interrupt,"ax",%progbits
  85              		.align	2
  86              		.global	sd_interrupt
  87              		.thumb
  88              		.thumb_func
  89              		.type	sd_interrupt, %function
  90              	sd_interrupt:
ARM GAS  D:\Windows\AppData\Local\Temp\ccX1CAiv.s 			page 3


  91              	.LFB64:
  20:sd_manager.c  **** } // CY_ISR(power_interrupt)
  21:sd_manager.c  **** 
  22:sd_manager.c  **** //triggers every second
  23:sd_manager.c  **** CY_ISR(sd_interrupt) {
  92              		.loc 1 23 0
  93              		.cfi_startproc
  94              		@ args = 0, pretend = 0, frame = 0
  95              		@ frame_needed = 1, uses_anonymous_args = 0
  96 0000 80B5     		push	{r7, lr}
  97              		.cfi_def_cfa_offset 8
  98              		.cfi_offset 7, -8
  99              		.cfi_offset 14, -4
 100 0002 00AF     		add	r7, sp, #0
 101              		.cfi_def_cfa_register 7
  24:sd_manager.c  **** 	sd_write();
 102              		.loc 1 24 0
 103 0004 FFF7FEFF 		bl	sd_write
  25:sd_manager.c  **** }
 104              		.loc 1 25 0
 105 0008 80BD     		pop	{r7, pc}
 106              		.cfi_endproc
 107              	.LFE64:
 108              		.size	sd_interrupt, .-sd_interrupt
 109 000a 00BF     		.section	.rodata
 110              		.align	2
 111              	.LC0:
 112 001c 7200     		.ascii	"r\000"
 113 001e 0000     		.align	2
 114              	.LC1:
 115 0020 00       		.ascii	"\000"
 116 0021 000000   		.align	2
 117              	.LC2:
 118 0024 74657374 		.ascii	"test_folder\000"
 118      5F666F6C 
 118      64657200 
 119              		.align	2
 120              	.LC3:
 121 0030 5C746573 		.ascii	"\\test_folder\\test_file.txt\000"
 121      745F666F 
 121      6C646572 
 121      5C746573 
 121      745F6669 
 122 004b 00       		.align	2
 123              	.LC4:
 124 004c 7700     		.ascii	"w\000"
 125              		.section	.text.sd_init,"ax",%progbits
 126              		.align	2
 127              		.global	sd_init
 128              		.thumb
 129              		.thumb_func
 130              		.type	sd_init, %function
 131              	sd_init:
 132              	.LFB65:
  26:sd_manager.c  **** 
  27:sd_manager.c  **** /* sd_init()
  28:sd_manager.c  **** 	Takes Time struct (time). Returns nothing.
ARM GAS  D:\Windows\AppData\Local\Temp\ccX1CAiv.s 			page 4


  29:sd_manager.c  **** 
  30:sd_manager.c  **** 	Initializes SD card filesystem.
  31:sd_manager.c  **** 	The following events will cause the sd_ok flag to be reset, which aborts all
  32:sd_manager.c  **** 	SD functions:
  33:sd_manager.c  **** 		- the SD card is not found
  34:sd_manager.c  **** 		- unable to create the "LOGS" directory
  35:sd_manager.c  **** 		- unable to create a directory named after the date
  36:sd_manager.c  **** 		- unable to create and open file for writing
  37:sd_manager.c  **** 
  38:sd_manager.c  **** 	sd_ok is set when the SD card is functional */
  39:sd_manager.c  **** void sd_init() {
 133              		.loc 1 39 0
 134              		.cfi_startproc
 135              		@ args = 0, pretend = 0, frame = 96
 136              		@ frame_needed = 1, uses_anonymous_args = 0
 137 0000 B0B5     		push	{r4, r5, r7, lr}
 138              		.cfi_def_cfa_offset 16
 139              		.cfi_offset 4, -16
 140              		.cfi_offset 5, -12
 141              		.cfi_offset 7, -8
 142              		.cfi_offset 14, -4
 143 0002 98B0     		sub	sp, sp, #96
 144              		.cfi_def_cfa_offset 112
 145 0004 00AF     		add	r7, sp, #0
 146              		.cfi_def_cfa_register 7
  40:sd_manager.c  **** 	/* power_isr note:
  41:sd_manager.c  **** 		Triggers unexpectedly due to floating pin/environmental voltages and
  42:sd_manager.c  **** 		capacitance. power isr is disabled for prototyping only.	*/
  43:sd_manager.c  **** 	power_comp_Start();
 147              		.loc 1 43 0
 148 0006 FFF7FEFF 		bl	power_comp_Start
  44:sd_manager.c  **** 	power_isr_ClearPending();
 149              		.loc 1 44 0
 150 000a FFF7FEFF 		bl	power_isr_ClearPending
  45:sd_manager.c  **** 	power_isr_StartEx(power_interrupt);
 151              		.loc 1 45 0
 152 000e 2D48     		ldr	r0, .L10
 153 0010 FFF7FEFF 		bl	power_isr_StartEx
  46:sd_manager.c  **** 	sd_timer_Start();
 154              		.loc 1 46 0
 155 0014 FFF7FEFF 		bl	sd_timer_Start
  47:sd_manager.c  **** 	sd_isr_StartEx(sd_interrupt);
 156              		.loc 1 47 0
 157 0018 2B48     		ldr	r0, .L10+4
 158 001a FFF7FEFF 		bl	sd_isr_StartEx
  48:sd_manager.c  ****     
  49:sd_manager.c  **** 	FS_Init();
 159              		.loc 1 49 0
 160 001e FFF7FEFF 		bl	FS_Init
  50:sd_manager.c  ****     FS_FAT_SupportLFN();            //enable long file name: filenames>8bytes
 161              		.loc 1 50 0
 162 0022 FFF7FEFF 		bl	FS_FAT_SupportLFN
  51:sd_manager.c  **** 	sd_ok = 1;
 163              		.loc 1 51 0
 164 0026 294B     		ldr	r3, .L10+8
 165 0028 0122     		movs	r2, #1
 166 002a 1A70     		strb	r2, [r3]
ARM GAS  D:\Windows\AppData\Local\Temp\ccX1CAiv.s 			page 5


  52:sd_manager.c  **** 	char file_str[64], test_folder[32];
  53:sd_manager.c  **** 
  54:sd_manager.c  **** 	if(FS_GetNumVolumes() == 1) {
 167              		.loc 1 54 0
 168 002c FFF7FEFF 		bl	FS_GetNumVolumes
 169 0030 0346     		mov	r3, r0
 170 0032 012B     		cmp	r3, #1
 171 0034 3FD1     		bne	.L5
  55:sd_manager.c  **** 		FS_SetFileWriteMode(FS_WRITEMODE_FAST);
 172              		.loc 1 55 0
 173 0036 0220     		movs	r0, #2
 174 0038 FFF7FEFF 		bl	FS_SetFileWriteMode
  56:sd_manager.c  **** 		if((pfile = FS_FOpen(format_file, "r")))
 175              		.loc 1 56 0
 176 003c 2448     		ldr	r0, .L10+12
 177 003e 2549     		ldr	r1, .L10+16
 178 0040 FFF7FEFF 		bl	FS_FOpen
 179 0044 0246     		mov	r2, r0
 180 0046 244B     		ldr	r3, .L10+20
 181 0048 1A60     		str	r2, [r3]
 182 004a 234B     		ldr	r3, .L10+20
 183 004c 1B68     		ldr	r3, [r3]
 184 004e 002B     		cmp	r3, #0
 185 0050 02D0     		beq	.L6
  57:sd_manager.c  **** 			FS_FormatSD("");
 186              		.loc 1 57 0
 187 0052 2248     		ldr	r0, .L10+24
 188 0054 FFF7FEFF 		bl	FS_FormatSD
 189              	.L6:
  58:sd_manager.c  **** 		
  59:sd_manager.c  ****         //create logs folder
  60:sd_manager.c  **** 		if(FS_ATTR_DIRECTORY != FS_GetFileAttributes("test_folder")) { // if not a dir
 190              		.loc 1 60 0
 191 0058 2148     		ldr	r0, .L10+28
 192 005a FFF7FEFF 		bl	FS_GetFileAttributes
 193 005e 0346     		mov	r3, r0
 194 0060 102B     		cmp	r3, #16
 195 0062 09D0     		beq	.L7
  61:sd_manager.c  **** 			if(FS_MkDir("test_folder")) {
 196              		.loc 1 61 0
 197 0064 1E48     		ldr	r0, .L10+28
 198 0066 FFF7FEFF 		bl	FS_MkDir
 199 006a 0346     		mov	r3, r0
 200 006c 002B     		cmp	r3, #0
 201 006e 03D0     		beq	.L7
  62:sd_manager.c  **** 				sd_ok = 0;
 202              		.loc 1 62 0
 203 0070 164B     		ldr	r3, .L10+8
 204 0072 0022     		movs	r2, #0
 205 0074 1A70     		strb	r2, [r3]
  63:sd_manager.c  **** 				return;
 206              		.loc 1 63 0
 207 0076 21E0     		b	.L4
 208              	.L7:
  64:sd_manager.c  **** 			} // if logs folder can't be created
  65:sd_manager.c  ****         }
  66:sd_manager.c  ****         
ARM GAS  D:\Windows\AppData\Local\Temp\ccX1CAiv.s 			page 6


  67:sd_manager.c  ****         // create log file
  68:sd_manager.c  **** 		sprintf(file_str, "\\test_folder\\test_file.txt");
 209              		.loc 1 68 0
 210 0078 07F12003 		add	r3, r7, #32
 211 007c 194A     		ldr	r2, .L10+32
 212 007e 1C46     		mov	r4, r3
 213 0080 1546     		mov	r5, r2
 214 0082 0FCD     		ldmia	r5!, {r0, r1, r2, r3}
 215 0084 0FC4     		stmia	r4!, {r0, r1, r2, r3}
 216 0086 95E80700 		ldmia	r5, {r0, r1, r2}
 217 008a 03C4     		stmia	r4!, {r0, r1}
 218 008c 2280     		strh	r2, [r4]	@ movhi
 219 008e 0234     		adds	r4, r4, #2
 220 0090 130C     		lsrs	r3, r2, #16
 221 0092 2370     		strb	r3, [r4]
  69:sd_manager.c  **** 		pfile = FS_FOpen(file_str, "w"); //create and open new file for writing
 222              		.loc 1 69 0
 223 0094 07F12003 		add	r3, r7, #32
 224 0098 1846     		mov	r0, r3
 225 009a 1349     		ldr	r1, .L10+36
 226 009c FFF7FEFF 		bl	FS_FOpen
 227 00a0 0246     		mov	r2, r0
 228 00a2 0D4B     		ldr	r3, .L10+20
 229 00a4 1A60     		str	r2, [r3]
  70:sd_manager.c  **** 		if(pfile == NULL) {
 230              		.loc 1 70 0
 231 00a6 0C4B     		ldr	r3, .L10+20
 232 00a8 1B68     		ldr	r3, [r3]
 233 00aa 002B     		cmp	r3, #0
 234 00ac 03D1     		bne	.L5
  71:sd_manager.c  **** 			sd_ok = 0;
 235              		.loc 1 71 0
 236 00ae 074B     		ldr	r3, .L10+8
 237 00b0 0022     		movs	r2, #0
 238 00b2 1A70     		strb	r2, [r3]
  72:sd_manager.c  **** 			return;
 239              		.loc 1 72 0
 240 00b4 02E0     		b	.L4
 241              	.L5:
  73:sd_manager.c  **** 		} // if file does not exist
  74:sd_manager.c  **** 
  75:sd_manager.c  **** 		// Set file time here
  76:sd_manager.c  **** 		//FS_FILETIME file_time;
  77:sd_manager.c  **** 		//unsigned long file_timestamp;
  78:sd_manager.c  **** 		/*
  79:sd_manager.c  **** 		file_time.Year = time.year;
  80:sd_manager.c  **** 		file_time.Month = time.month;
  81:sd_manager.c  **** 		file_time.Day = time.day;
  82:sd_manager.c  **** 		file_time.Hour = time.hour;
  83:sd_manager.c  **** 		file_time.Minute = time.minute;
  84:sd_manager.c  **** 		file_time.Second = time.second;
  85:sd_manager.c  **** 		*/
  86:sd_manager.c  **** 		//FS_FileTimeToTimeStamp(&file_time, &file_timestamp);
  87:sd_manager.c  **** 		//FS_SetFileTime(file_str, file_timestamp);
  88:sd_manager.c  **** 		/*FS_SetFileTimeEx(file_str, file_timestamp, FS_FILETIME_CREATE);	//doesnt work
  89:sd_manager.c  **** 		FS_SetFileTimeEx(file_str, file_timestamp, FS_FILETIME_ACCESS);
  90:sd_manager.c  **** 		FS_SetFileTimeEx(file_str, file_timestamp, FS_FILETIME_MODIFY);*/
ARM GAS  D:\Windows\AppData\Local\Temp\ccX1CAiv.s 			page 7


  91:sd_manager.c  **** 	} // if a single file volume exists
  92:sd_manager.c  ****     FS_Sync("");
 242              		.loc 1 92 0
 243 00b6 0948     		ldr	r0, .L10+24
 244 00b8 FFF7FEFF 		bl	FS_Sync
 245              	.L4:
  93:sd_manager.c  **** } // sd_init()
 246              		.loc 1 93 0
 247 00bc 6037     		adds	r7, r7, #96
 248              		.cfi_def_cfa_offset 16
 249 00be BD46     		mov	sp, r7
 250              		.cfi_def_cfa_register 13
 251              		@ sp needed
 252 00c0 B0BD     		pop	{r4, r5, r7, pc}
 253              	.L11:
 254 00c2 00BF     		.align	2
 255              	.L10:
 256 00c4 00000000 		.word	power_interrupt
 257 00c8 00000000 		.word	sd_interrupt
 258 00cc 00000000 		.word	sd_ok
 259 00d0 00000000 		.word	format_file
 260 00d4 1C000000 		.word	.LC0
 261 00d8 00000000 		.word	pfile
 262 00dc 20000000 		.word	.LC1
 263 00e0 24000000 		.word	.LC2
 264 00e4 30000000 		.word	.LC3
 265 00e8 4C000000 		.word	.LC4
 266              		.cfi_endproc
 267              	.LFE65:
 268              		.size	sd_init, .-sd_init
 269              		.section	.rodata
 270 004e 0000     		.align	2
 271              	.LC5:
 272 0050 25582C25 		.ascii	"%X,%u,%X,%X,%X,%X,%X,%X,%X,%X\012\000"
 272      752C2558 
 272      2C25582C 
 272      25582C25 
 272      582C2558 
 273              		.section	.text.sd_write,"ax",%progbits
 274              		.align	2
 275              		.global	sd_write
 276              		.thumb
 277              		.thumb_func
 278              		.type	sd_write, %function
 279              	sd_write:
 280              	.LFB66:
  94:sd_manager.c  **** 
  95:sd_manager.c  **** 
  96:sd_manager.c  **** 
  97:sd_manager.c  **** 
  98:sd_manager.c  **** 
  99:sd_manager.c  **** /* sd_write()
 100:sd_manager.c  **** 	Writes current to the SD card. 
 101:sd_manager.c  **** 	Synchronizes the filesystem after it is  written. */
 102:sd_manager.c  **** void sd_write() {
 281              		.loc 1 102 0
 282              		.cfi_startproc
ARM GAS  D:\Windows\AppData\Local\Temp\ccX1CAiv.s 			page 8


 283              		@ args = 0, pretend = 0, frame = 72
 284              		@ frame_needed = 1, uses_anonymous_args = 0
 285 0000 2DE9F043 		push	{r4, r5, r6, r7, r8, r9, lr}
 286              		.cfi_def_cfa_offset 28
 287              		.cfi_offset 4, -28
 288              		.cfi_offset 5, -24
 289              		.cfi_offset 6, -20
 290              		.cfi_offset 7, -16
 291              		.cfi_offset 8, -12
 292              		.cfi_offset 9, -8
 293              		.cfi_offset 14, -4
 294 0004 9BB0     		sub	sp, sp, #108
 295              		.cfi_def_cfa_offset 136
 296 0006 08AF     		add	r7, sp, #32
 297              		.cfi_def_cfa 7, 104
 103:sd_manager.c  **** 	if(!sd_ok) return;
 298              		.loc 1 103 0
 299 0008 4D4B     		ldr	r3, .L17
 300 000a 1B78     		ldrb	r3, [r3]	@ zero_extendqisi2
 301 000c 002B     		cmp	r3, #0
 302 000e 00F09280 		beq	.L12
 104:sd_manager.c  **** 
 105:sd_manager.c  **** 	char buffer[64];
 106:sd_manager.c  **** 	short length = 0;
 303              		.loc 1 106 0
 304 0012 0023     		movs	r3, #0
 305 0014 A7F84630 		strh	r3, [r7, #70]	@ movhi
 107:sd_manager.c  **** 	
 108:sd_manager.c  ****     uint8_t atomic_state = CyEnterCriticalSection(); // BEGIN ATOMIC
 306              		.loc 1 108 0
 307 0018 FFF7FEFF 		bl	CyEnterCriticalSection
 308 001c 0346     		mov	r3, r0
 309 001e 87F84530 		strb	r3, [r7, #69]
 109:sd_manager.c  **** 	for(sd_head=0; sd_head<sd_tail; sd_head++) {
 310              		.loc 1 109 0
 311 0022 484B     		ldr	r3, .L17+4
 312 0024 0022     		movs	r2, #0
 313 0026 1A80     		strh	r2, [r3]	@ movhi
 314 0028 71E0     		b	.L15
 315              	.L16:
 110:sd_manager.c  **** 		length = sprintf(buffer, "%X,%u,%X,%X,%X,%X,%X,%X,%X,%X\n",
 111:sd_manager.c  **** 			(unsigned)sd_queue[sd_head].id,
 316              		.loc 1 111 0 discriminator 3
 317 002a 464B     		ldr	r3, .L17+4
 318 002c 1B88     		ldrh	r3, [r3]
 319 002e 464A     		ldr	r2, .L17+8
 320 0030 1B01     		lsls	r3, r3, #4
 321 0032 1344     		add	r3, r3, r2
 322 0034 9B88     		ldrh	r3, [r3, #4]
 110:sd_manager.c  **** 		length = sprintf(buffer, "%X,%u,%X,%X,%X,%X,%X,%X,%X,%X\n",
 323              		.loc 1 110 0 discriminator 3
 324 0036 9946     		mov	r9, r3
 112:sd_manager.c  **** 			MILLI_PERIOD - (unsigned)sd_queue[sd_head].millicounter,
 325              		.loc 1 112 0 discriminator 3
 326 0038 424B     		ldr	r3, .L17+4
 327 003a 1B88     		ldrh	r3, [r3]
 328 003c 424A     		ldr	r2, .L17+8
ARM GAS  D:\Windows\AppData\Local\Temp\ccX1CAiv.s 			page 9


 329 003e 1B01     		lsls	r3, r3, #4
 330 0040 1344     		add	r3, r3, r2
 331 0042 1A68     		ldr	r2, [r3]
 110:sd_manager.c  **** 		length = sprintf(buffer, "%X,%u,%X,%X,%X,%X,%X,%X,%X,%X\n",
 332              		.loc 1 110 0 discriminator 3
 333 0044 414B     		ldr	r3, .L17+12
 334 0046 9B1A     		subs	r3, r3, r2
 113:sd_manager.c  **** 			(unsigned)sd_queue[sd_head].data[0],
 335              		.loc 1 113 0 discriminator 3
 336 0048 3E4A     		ldr	r2, .L17+4
 337 004a 1288     		ldrh	r2, [r2]
 338 004c 3E49     		ldr	r1, .L17+8
 339 004e 1201     		lsls	r2, r2, #4
 340 0050 0A44     		add	r2, r2, r1
 341 0052 D279     		ldrb	r2, [r2, #7]	@ zero_extendqisi2
 110:sd_manager.c  **** 		length = sprintf(buffer, "%X,%u,%X,%X,%X,%X,%X,%X,%X,%X\n",
 342              		.loc 1 110 0 discriminator 3
 343 0054 9046     		mov	r8, r2
 114:sd_manager.c  **** 			(unsigned)sd_queue[sd_head].data[1],
 344              		.loc 1 114 0 discriminator 3
 345 0056 3B4A     		ldr	r2, .L17+4
 346 0058 1288     		ldrh	r2, [r2]
 347 005a 3B49     		ldr	r1, .L17+8
 348 005c 1201     		lsls	r2, r2, #4
 349 005e 0A44     		add	r2, r2, r1
 350 0060 0132     		adds	r2, r2, #1
 351 0062 D279     		ldrb	r2, [r2, #7]	@ zero_extendqisi2
 110:sd_manager.c  **** 			(unsigned)sd_queue[sd_head].id,
 352              		.loc 1 110 0 discriminator 3
 353 0064 9446     		mov	ip, r2
 115:sd_manager.c  **** 			(unsigned)sd_queue[sd_head].data[2],
 354              		.loc 1 115 0 discriminator 3
 355 0066 374A     		ldr	r2, .L17+4
 356 0068 1288     		ldrh	r2, [r2]
 357 006a 3749     		ldr	r1, .L17+8
 358 006c 1201     		lsls	r2, r2, #4
 359 006e 0A44     		add	r2, r2, r1
 360 0070 0232     		adds	r2, r2, #2
 361 0072 D279     		ldrb	r2, [r2, #7]	@ zero_extendqisi2
 110:sd_manager.c  **** 			(unsigned)sd_queue[sd_head].id,
 362              		.loc 1 110 0 discriminator 3
 363 0074 9646     		mov	lr, r2
 116:sd_manager.c  **** 			(unsigned)sd_queue[sd_head].data[3],
 364              		.loc 1 116 0 discriminator 3
 365 0076 334A     		ldr	r2, .L17+4
 366 0078 1288     		ldrh	r2, [r2]
 367 007a 3349     		ldr	r1, .L17+8
 368 007c 1201     		lsls	r2, r2, #4
 369 007e 0A44     		add	r2, r2, r1
 370 0080 0332     		adds	r2, r2, #3
 371 0082 D279     		ldrb	r2, [r2, #7]	@ zero_extendqisi2
 110:sd_manager.c  **** 			(unsigned)sd_queue[sd_head].id,
 372              		.loc 1 110 0 discriminator 3
 373 0084 1646     		mov	r6, r2
 117:sd_manager.c  **** 			(unsigned)sd_queue[sd_head].data[4],
 374              		.loc 1 117 0 discriminator 3
 375 0086 2F4A     		ldr	r2, .L17+4
ARM GAS  D:\Windows\AppData\Local\Temp\ccX1CAiv.s 			page 10


 376 0088 1288     		ldrh	r2, [r2]
 377 008a 2F49     		ldr	r1, .L17+8
 378 008c 1201     		lsls	r2, r2, #4
 379 008e 0A44     		add	r2, r2, r1
 380 0090 0432     		adds	r2, r2, #4
 381 0092 D279     		ldrb	r2, [r2, #7]	@ zero_extendqisi2
 110:sd_manager.c  **** 			(unsigned)sd_queue[sd_head].id,
 382              		.loc 1 110 0 discriminator 3
 383 0094 1546     		mov	r5, r2
 118:sd_manager.c  **** 			(unsigned)sd_queue[sd_head].data[5],
 384              		.loc 1 118 0 discriminator 3
 385 0096 2B4A     		ldr	r2, .L17+4
 386 0098 1288     		ldrh	r2, [r2]
 387 009a 2B49     		ldr	r1, .L17+8
 388 009c 1201     		lsls	r2, r2, #4
 389 009e 0A44     		add	r2, r2, r1
 390 00a0 0532     		adds	r2, r2, #5
 391 00a2 D279     		ldrb	r2, [r2, #7]	@ zero_extendqisi2
 110:sd_manager.c  **** 			(unsigned)sd_queue[sd_head].id,
 392              		.loc 1 110 0 discriminator 3
 393 00a4 1446     		mov	r4, r2
 119:sd_manager.c  **** 			(unsigned)sd_queue[sd_head].data[6],
 394              		.loc 1 119 0 discriminator 3
 395 00a6 274A     		ldr	r2, .L17+4
 396 00a8 1288     		ldrh	r2, [r2]
 397 00aa 2749     		ldr	r1, .L17+8
 398 00ac 1201     		lsls	r2, r2, #4
 399 00ae 0A44     		add	r2, r2, r1
 400 00b0 0632     		adds	r2, r2, #6
 401 00b2 D279     		ldrb	r2, [r2, #7]	@ zero_extendqisi2
 110:sd_manager.c  **** 			(unsigned)sd_queue[sd_head].id,
 402              		.loc 1 110 0 discriminator 3
 403 00b4 1046     		mov	r0, r2
 120:sd_manager.c  **** 			(unsigned)sd_queue[sd_head].data[7]);
 404              		.loc 1 120 0 discriminator 3
 405 00b6 234A     		ldr	r2, .L17+4
 406 00b8 1288     		ldrh	r2, [r2]
 407 00ba 2349     		ldr	r1, .L17+8
 408 00bc 1201     		lsls	r2, r2, #4
 409 00be 0A44     		add	r2, r2, r1
 410 00c0 0732     		adds	r2, r2, #7
 411 00c2 D279     		ldrb	r2, [r2, #7]	@ zero_extendqisi2
 110:sd_manager.c  **** 			(unsigned)sd_queue[sd_head].id,
 412              		.loc 1 110 0 discriminator 3
 413 00c4 1146     		mov	r1, r2
 414 00c6 3A1D     		adds	r2, r7, #4
 415 00c8 CDF80080 		str	r8, [sp]
 416 00cc CDF804C0 		str	ip, [sp, #4]
 417 00d0 CDF808E0 		str	lr, [sp, #8]
 418 00d4 0396     		str	r6, [sp, #12]
 419 00d6 0495     		str	r5, [sp, #16]
 420 00d8 0594     		str	r4, [sp, #20]
 421 00da 0690     		str	r0, [sp, #24]
 422 00dc 0791     		str	r1, [sp, #28]
 423 00de 1046     		mov	r0, r2
 424 00e0 1B49     		ldr	r1, .L17+16
 425 00e2 4A46     		mov	r2, r9
ARM GAS  D:\Windows\AppData\Local\Temp\ccX1CAiv.s 			page 11


 426 00e4 FFF7FEFF 		bl	sprintf
 427 00e8 0346     		mov	r3, r0
 428 00ea A7F84630 		strh	r3, [r7, #70]	@ movhi
 121:sd_manager.c  **** 
 122:sd_manager.c  **** 		FS_Write(pfile, buffer, length); // write to SD
 429              		.loc 1 122 0 discriminator 3
 430 00ee 194B     		ldr	r3, .L17+20
 431 00f0 1968     		ldr	r1, [r3]
 432 00f2 B7F94630 		ldrsh	r3, [r7, #70]
 433 00f6 3A1D     		adds	r2, r7, #4
 434 00f8 0846     		mov	r0, r1
 435 00fa 1146     		mov	r1, r2
 436 00fc 1A46     		mov	r2, r3
 437 00fe FFF7FEFF 		bl	FS_Write
 109:sd_manager.c  **** 		length = sprintf(buffer, "%X,%u,%X,%X,%X,%X,%X,%X,%X,%X\n",
 438              		.loc 1 109 0 discriminator 3
 439 0102 104B     		ldr	r3, .L17+4
 440 0104 1B88     		ldrh	r3, [r3]
 441 0106 0133     		adds	r3, r3, #1
 442 0108 9AB2     		uxth	r2, r3
 443 010a 0E4B     		ldr	r3, .L17+4
 444 010c 1A80     		strh	r2, [r3]	@ movhi
 445              	.L15:
 109:sd_manager.c  **** 		length = sprintf(buffer, "%X,%u,%X,%X,%X,%X,%X,%X,%X,%X\n",
 446              		.loc 1 109 0 is_stmt 0 discriminator 1
 447 010e 0D4B     		ldr	r3, .L17+4
 448 0110 1A88     		ldrh	r2, [r3]
 449 0112 114B     		ldr	r3, .L17+24
 450 0114 1B88     		ldrh	r3, [r3]
 451 0116 9A42     		cmp	r2, r3
 452 0118 87D3     		bcc	.L16
 123:sd_manager.c  **** 	}
 124:sd_manager.c  **** 	FS_Sync(""); // sync to SD
 453              		.loc 1 124 0 is_stmt 1
 454 011a 1048     		ldr	r0, .L17+28
 455 011c FFF7FEFF 		bl	FS_Sync
 125:sd_manager.c  **** 	sd_head=0; sd_tail=0;
 456              		.loc 1 125 0
 457 0120 084B     		ldr	r3, .L17+4
 458 0122 0022     		movs	r2, #0
 459 0124 1A80     		strh	r2, [r3]	@ movhi
 460 0126 0C4B     		ldr	r3, .L17+24
 461 0128 0022     		movs	r2, #0
 462 012a 1A80     		strh	r2, [r3]	@ movhi
 126:sd_manager.c  ****     CyExitCriticalSection(atomic_state);               // END ATOMIC
 463              		.loc 1 126 0
 464 012c 97F84530 		ldrb	r3, [r7, #69]	@ zero_extendqisi2
 465 0130 1846     		mov	r0, r3
 466 0132 FFF7FEFF 		bl	CyExitCriticalSection
 467              	.L12:
 127:sd_manager.c  **** } // sd_write()
 468              		.loc 1 127 0
 469 0136 4C37     		adds	r7, r7, #76
 470              		.cfi_def_cfa_offset 28
 471 0138 BD46     		mov	sp, r7
 472              		.cfi_def_cfa_register 13
 473              		@ sp needed
ARM GAS  D:\Windows\AppData\Local\Temp\ccX1CAiv.s 			page 12


 474 013a BDE8F083 		pop	{r4, r5, r6, r7, r8, r9, pc}
 475              	.L18:
 476 013e 00BF     		.align	2
 477              	.L17:
 478 0140 00000000 		.word	sd_ok
 479 0144 00000000 		.word	sd_head
 480 0148 00000000 		.word	sd_queue
 481 014c 002E9302 		.word	43200000
 482 0150 50000000 		.word	.LC5
 483 0154 00000000 		.word	pfile
 484 0158 00000000 		.word	sd_tail
 485 015c 20000000 		.word	.LC1
 486              		.cfi_endproc
 487              	.LFE66:
 488              		.size	sd_write, .-sd_write
 489              		.section	.rodata
 490 006f 00       		.align	2
 491              	.LC6:
 492 0070 5C424D53 		.ascii	"\\BMS\\SoC.txt\000"
 492      5C536F43 
 492      2E747874 
 492      00
 493              		.section	.text.sd_read,"ax",%progbits
 494              		.align	2
 495              		.global	sd_read
 496              		.thumb
 497              		.thumb_func
 498              		.type	sd_read, %function
 499              	sd_read:
 500              	.LFB67:
 128:sd_manager.c  **** 
 129:sd_manager.c  **** 
 130:sd_manager.c  **** void sd_read() {
 501              		.loc 1 130 0
 502              		.cfi_startproc
 503              		@ args = 0, pretend = 0, frame = 64
 504              		@ frame_needed = 1, uses_anonymous_args = 0
 505 0000 80B5     		push	{r7, lr}
 506              		.cfi_def_cfa_offset 8
 507              		.cfi_offset 7, -8
 508              		.cfi_offset 14, -4
 509 0002 90B0     		sub	sp, sp, #64
 510              		.cfi_def_cfa_offset 72
 511 0004 00AF     		add	r7, sp, #0
 512              		.cfi_def_cfa_register 7
 131:sd_manager.c  **** 	if((pfile = FS_FOpen("\\BMS\\SoC.txt", "r"))) {	//open file for reading
 513              		.loc 1 131 0
 514 0006 0D48     		ldr	r0, .L21
 515 0008 0D49     		ldr	r1, .L21+4
 516 000a FFF7FEFF 		bl	FS_FOpen
 517 000e 0246     		mov	r2, r0
 518 0010 0C4B     		ldr	r3, .L21+8
 519 0012 1A60     		str	r2, [r3]
 520 0014 0B4B     		ldr	r3, .L21+8
 521 0016 1B68     		ldr	r3, [r3]
 522 0018 002B     		cmp	r3, #0
 523 001a 0CD0     		beq	.L19
ARM GAS  D:\Windows\AppData\Local\Temp\ccX1CAiv.s 			page 13


 524              	.LBB2:
 132:sd_manager.c  **** 		char buffer[64];
 133:sd_manager.c  **** 		//Time time;
 134:sd_manager.c  **** 		//DataPacket msg;
 135:sd_manager.c  **** 		FS_Read(pfile, buffer, 64); // read entire file
 525              		.loc 1 135 0
 526 001c 094B     		ldr	r3, .L21+8
 527 001e 1A68     		ldr	r2, [r3]
 528 0020 3B46     		mov	r3, r7
 529 0022 1046     		mov	r0, r2
 530 0024 1946     		mov	r1, r3
 531 0026 4022     		movs	r2, #64
 532 0028 FFF7FEFF 		bl	FS_Read
 136:sd_manager.c  **** 		FS_FClose(pfile);
 533              		.loc 1 136 0
 534 002c 054B     		ldr	r3, .L21+8
 535 002e 1B68     		ldr	r3, [r3]
 536 0030 1846     		mov	r0, r3
 537 0032 FFF7FEFF 		bl	FS_FClose
 538              	.L19:
 539              	.LBE2:
 137:sd_manager.c  **** 	}
 138:sd_manager.c  **** }
 540              		.loc 1 138 0
 541 0036 4037     		adds	r7, r7, #64
 542              		.cfi_def_cfa_offset 8
 543 0038 BD46     		mov	sp, r7
 544              		.cfi_def_cfa_register 13
 545              		@ sp needed
 546 003a 80BD     		pop	{r7, pc}
 547              	.L22:
 548              		.align	2
 549              	.L21:
 550 003c 70000000 		.word	.LC6
 551 0040 1C000000 		.word	.LC0
 552 0044 00000000 		.word	pfile
 553              		.cfi_endproc
 554              	.LFE67:
 555              		.size	sd_read, .-sd_read
 556              		.section	.text.sd_buffer,"ax",%progbits
 557              		.align	2
 558              		.global	sd_buffer
 559              		.thumb
 560              		.thumb_func
 561              		.type	sd_buffer, %function
 562              	sd_buffer:
 563              	.LFB68:
 139:sd_manager.c  **** 
 140:sd_manager.c  **** 
 141:sd_manager.c  **** void sd_buffer(DataPacket * msg) {
 564              		.loc 1 141 0
 565              		.cfi_startproc
 566              		@ args = 0, pretend = 0, frame = 8
 567              		@ frame_needed = 1, uses_anonymous_args = 0
 568              		@ link register save eliminated.
 569 0000 90B4     		push	{r4, r7}
 570              		.cfi_def_cfa_offset 8
ARM GAS  D:\Windows\AppData\Local\Temp\ccX1CAiv.s 			page 14


 571              		.cfi_offset 4, -8
 572              		.cfi_offset 7, -4
 573 0002 82B0     		sub	sp, sp, #8
 574              		.cfi_def_cfa_offset 16
 575 0004 00AF     		add	r7, sp, #0
 576              		.cfi_def_cfa_register 7
 577 0006 7860     		str	r0, [r7, #4]
 142:sd_manager.c  **** 	sd_queue[sd_tail] = *msg;
 578              		.loc 1 142 0
 579 0008 0F4B     		ldr	r3, .L26
 580 000a 1B88     		ldrh	r3, [r3]
 581 000c 0F4A     		ldr	r2, .L26+4
 582 000e 1B01     		lsls	r3, r3, #4
 583 0010 1A44     		add	r2, r2, r3
 584 0012 7B68     		ldr	r3, [r7, #4]
 585 0014 1446     		mov	r4, r2
 586 0016 0FCB     		ldmia	r3, {r0, r1, r2, r3}
 587 0018 84E80F00 		stmia	r4, {r0, r1, r2, r3}
 143:sd_manager.c  **** 	sd_tail = ((sd_tail == SD_QUEUE_LENGTH-1) ? sd_tail:sd_tail++);	//if buffer full stay at tail
 588              		.loc 1 143 0
 589 001c 0A4B     		ldr	r3, .L26
 590 001e 1B88     		ldrh	r3, [r3]
 591 0020 40F2FF32 		movw	r2, #1023
 592 0024 9342     		cmp	r3, r2
 593 0026 06D0     		beq	.L24
 594              		.loc 1 143 0 is_stmt 0 discriminator 1
 595 0028 074B     		ldr	r3, .L26
 596 002a 1B88     		ldrh	r3, [r3]
 597 002c 5A1C     		adds	r2, r3, #1
 598 002e 91B2     		uxth	r1, r2
 599 0030 054A     		ldr	r2, .L26
 600 0032 1180     		strh	r1, [r2]	@ movhi
 601 0034 01E0     		b	.L25
 602              	.L24:
 603              		.loc 1 143 0 discriminator 2
 604 0036 044B     		ldr	r3, .L26
 605 0038 1B88     		ldrh	r3, [r3]
 606              	.L25:
 607              		.loc 1 143 0 discriminator 4
 608 003a 034A     		ldr	r2, .L26
 609 003c 1380     		strh	r3, [r2]	@ movhi
 144:sd_manager.c  **** }
 610              		.loc 1 144 0 is_stmt 1 discriminator 4
 611 003e 0837     		adds	r7, r7, #8
 612              		.cfi_def_cfa_offset 8
 613 0040 BD46     		mov	sp, r7
 614              		.cfi_def_cfa_register 13
 615              		@ sp needed
 616 0042 90BC     		pop	{r4, r7}
 617              		.cfi_restore 7
 618              		.cfi_restore 4
 619              		.cfi_def_cfa_offset 0
 620 0044 7047     		bx	lr
 621              	.L27:
 622 0046 00BF     		.align	2
 623              	.L26:
 624 0048 00000000 		.word	sd_tail
ARM GAS  D:\Windows\AppData\Local\Temp\ccX1CAiv.s 			page 15


 625 004c 00000000 		.word	sd_queue
 626              		.cfi_endproc
 627              	.LFE68:
 628              		.size	sd_buffer, .-sd_buffer
 629              		.section	.text.sd_stop,"ax",%progbits
 630              		.align	2
 631              		.global	sd_stop
 632              		.thumb
 633              		.thumb_func
 634              		.type	sd_stop, %function
 635              	sd_stop:
 636              	.LFB69:
 145:sd_manager.c  **** /* sd_stop()
 146:sd_manager.c  **** 	Takes and returns nothing.
 147:sd_manager.c  **** 	Closes the file, synchronizes, and unmounts SD card to prevent corruption.
 148:sd_manager.c  **** */
 149:sd_manager.c  **** void sd_stop(void) {
 637              		.loc 1 149 0
 638              		.cfi_startproc
 639              		@ args = 0, pretend = 0, frame = 0
 640              		@ frame_needed = 1, uses_anonymous_args = 0
 641 0000 80B5     		push	{r7, lr}
 642              		.cfi_def_cfa_offset 8
 643              		.cfi_offset 7, -8
 644              		.cfi_offset 14, -4
 645 0002 00AF     		add	r7, sp, #0
 646              		.cfi_def_cfa_register 7
 150:sd_manager.c  **** 	sd_write();
 647              		.loc 1 150 0
 648 0004 FFF7FEFF 		bl	sd_write
 151:sd_manager.c  **** 	FS_FClose(pfile);
 649              		.loc 1 151 0
 650 0008 054B     		ldr	r3, .L29
 651 000a 1B68     		ldr	r3, [r3]
 652 000c 1846     		mov	r0, r3
 653 000e FFF7FEFF 		bl	FS_FClose
 152:sd_manager.c  **** 	FS_Sync("");
 654              		.loc 1 152 0
 655 0012 0448     		ldr	r0, .L29+4
 656 0014 FFF7FEFF 		bl	FS_Sync
 153:sd_manager.c  **** 	FS_Unmount("");
 657              		.loc 1 153 0
 658 0018 0248     		ldr	r0, .L29+4
 659 001a FFF7FEFF 		bl	FS_Unmount
 154:sd_manager.c  **** } // sd_stop()
 660              		.loc 1 154 0
 661 001e 80BD     		pop	{r7, pc}
 662              	.L30:
 663              		.align	2
 664              	.L29:
 665 0020 00000000 		.word	pfile
 666 0024 20000000 		.word	.LC1
 667              		.cfi_endproc
 668              	.LFE69:
 669              		.size	sd_stop, .-sd_stop
 670              		.section	.rodata
 671 007d 000000   		.align	2
ARM GAS  D:\Windows\AppData\Local\Temp\ccX1CAiv.s 			page 16


 672              	.LC7:
 673 0080 54797065 		.ascii	"Type,Time,Value,ID\012\000"
 673      2C54696D 
 673      652C5661 
 673      6C75652C 
 673      49440A00 
 674              		.align	2
 675              	.LC8:
 676 0094 25752C25 		.ascii	"%u,%X,%X,%u\012\000"
 676      582C2558 
 676      2C25750A 
 676      00
 677 00a1 000000   		.section	.text.sd_writetest,"ax",%progbits
 678              		.align	2
 679              		.global	sd_writetest
 680              		.thumb
 681              		.thumb_func
 682              		.type	sd_writetest, %function
 683              	sd_writetest:
 684              	.LFB70:
 155:sd_manager.c  **** 
 156:sd_manager.c  **** 
 157:sd_manager.c  **** void sd_writetest() {
 685              		.loc 1 157 0
 686              		.cfi_startproc
 687              		@ args = 0, pretend = 0, frame = 136
 688              		@ frame_needed = 1, uses_anonymous_args = 0
 689 0000 80B5     		push	{r7, lr}
 690              		.cfi_def_cfa_offset 8
 691              		.cfi_offset 7, -8
 692              		.cfi_offset 14, -4
 693 0002 A4B0     		sub	sp, sp, #144
 694              		.cfi_def_cfa_offset 152
 695 0004 02AF     		add	r7, sp, #8
 696              		.cfi_def_cfa 7, 144
 158:sd_manager.c  **** 	// test data writing
 159:sd_manager.c  **** 	char buffer[128];
 160:sd_manager.c  **** 	short length = 0;
 697              		.loc 1 160 0
 698 0006 0023     		movs	r3, #0
 699 0008 A7F88630 		strh	r3, [r7, #134]	@ movhi
 161:sd_manager.c  **** 
 162:sd_manager.c  **** 	// test write
 163:sd_manager.c  **** 	FS_Write(pfile, "Type,Time,Value,ID\n", 19);
 700              		.loc 1 163 0
 701 000c 144B     		ldr	r3, .L32
 702 000e 1B68     		ldr	r3, [r3]
 703 0010 1846     		mov	r0, r3
 704 0012 1449     		ldr	r1, .L32+4
 705 0014 1322     		movs	r2, #19
 706 0016 FFF7FEFF 		bl	FS_Write
 164:sd_manager.c  **** 	length = sprintf(buffer, "%u,%X,%X,%u\n",
 707              		.loc 1 164 0
 708 001a 3A1D     		adds	r2, r7, #4
 709 001c 4FF0FF33 		mov	r3, #-1
 710 0020 0093     		str	r3, [sp]
 711 0022 E023     		movs	r3, #224
ARM GAS  D:\Windows\AppData\Local\Temp\ccX1CAiv.s 			page 17


 712 0024 0193     		str	r3, [sp, #4]
 713 0026 1046     		mov	r0, r2
 714 0028 0F49     		ldr	r1, .L32+8
 715 002a 0122     		movs	r2, #1
 716 002c 4FF6FF73 		movw	r3, #65535
 717 0030 FFF7FEFF 		bl	sprintf
 718 0034 0346     		mov	r3, r0
 719 0036 A7F88630 		strh	r3, [r7, #134]	@ movhi
 165:sd_manager.c  **** 		1,0xFFFF, 0xFFFFFFFF, 224);
 166:sd_manager.c  **** 	FS_Write(pfile, buffer, length);
 720              		.loc 1 166 0
 721 003a 094B     		ldr	r3, .L32
 722 003c 1968     		ldr	r1, [r3]
 723 003e B7F98630 		ldrsh	r3, [r7, #134]
 724 0042 3A1D     		adds	r2, r7, #4
 725 0044 0846     		mov	r0, r1
 726 0046 1146     		mov	r1, r2
 727 0048 1A46     		mov	r2, r3
 728 004a FFF7FEFF 		bl	FS_Write
 167:sd_manager.c  **** 
 168:sd_manager.c  **** 	sd_stop(); // for testing
 729              		.loc 1 168 0
 730 004e FFF7FEFF 		bl	sd_stop
 169:sd_manager.c  **** 	sd_ok = 0; // for testing
 731              		.loc 1 169 0
 732 0052 064B     		ldr	r3, .L32+12
 733 0054 0022     		movs	r2, #0
 734 0056 1A70     		strb	r2, [r3]
 170:sd_manager.c  **** }//test_push
 735              		.loc 1 170 0
 736 0058 8837     		adds	r7, r7, #136
 737              		.cfi_def_cfa_offset 8
 738 005a BD46     		mov	sp, r7
 739              		.cfi_def_cfa_register 13
 740              		@ sp needed
 741 005c 80BD     		pop	{r7, pc}
 742              	.L33:
 743 005e 00BF     		.align	2
 744              	.L32:
 745 0060 00000000 		.word	pfile
 746 0064 80000000 		.word	.LC7
 747 0068 94000000 		.word	.LC8
 748 006c 00000000 		.word	sd_ok
 749              		.cfi_endproc
 750              	.LFE70:
 751              		.size	sd_writetest, .-sd_writetest
 752              		.text
 753              	.Letext0:
 754              		.file 2 "d:\\programming\\cypress\\psoc creator\\4.0\\psoc creator\\import\\gnu\\arm\\4.9.3\\arm-n
 755              		.file 3 "d:\\programming\\cypress\\psoc creator\\4.0\\psoc creator\\import\\gnu\\arm\\4.9.3\\arm-n
 756              		.file 4 ".\\emFile_V322c\\Code\\Include\\PSoC5/FS_Types.h"
 757              		.file 5 "data.h"
 758              		.file 6 "Generated_Source\\PSoC5/core_cm3.h"
 759              		.file 7 ".\\emFile_V322c\\Code\\Include\\PSoC5/FS.h"