ARM GAS  D:\Windows\AppData\Local\Temp\ccyawUhw.s 			page 1


   1              		.syntax unified
   2              		.cpu cortex-m3
   3              		.fpu softvfp
   4              		.eabi_attribute 20, 1
   5              		.eabi_attribute 21, 1
   6              		.eabi_attribute 23, 3
   7              		.eabi_attribute 24, 1
   8              		.eabi_attribute 25, 1
   9              		.eabi_attribute 26, 1
  10              		.eabi_attribute 30, 6
  11              		.eabi_attribute 34, 1
  12              		.eabi_attribute 18, 4
  13              		.thumb
  14              		.file	"SoC_manager.c"
  15              		.text
  16              	.Ltext0:
  17              		.cfi_sections	.debug_frame
  18              		.section	.text.SoC_init,"ax",%progbits
  19              		.align	2
  20              		.global	SoC_init
  21              		.thumb
  22              		.thumb_func
  23              		.type	SoC_init, %function
  24              	SoC_init:
  25              	.LFB63:
  26              		.file 1 "SoC_manager.c"
   1:SoC_manager.c **** 
   2:SoC_manager.c **** #include "SoC_manager.h"
   3:SoC_manager.c **** 
   4:SoC_manager.c **** extern DataPacket BMS_CURRENT;
   5:SoC_manager.c **** extern DataPacket BMS_VOLTAGE;
   6:SoC_manager.c **** 
   7:SoC_manager.c **** extern CAN_1_TX_MSG SENS_STAT;		//0x247
   8:SoC_manager.c **** extern CAN_1_DATA_BYTES_MSG data;
   9:SoC_manager.c **** 
  10:SoC_manager.c **** void SoC_init() {
  27              		.loc 1 10 0
  28              		.cfi_startproc
  29              		@ args = 0, pretend = 0, frame = 0
  30              		@ frame_needed = 1, uses_anonymous_args = 0
  31 0000 80B5     		push	{r7, lr}
  32              		.cfi_def_cfa_offset 8
  33              		.cfi_offset 7, -8
  34              		.cfi_offset 14, -4
  35 0002 00AF     		add	r7, sp, #0
  36              		.cfi_def_cfa_register 7
  11:SoC_manager.c **** 	millis_timer_Start();	
  37              		.loc 1 11 0
  38 0004 FFF7FEFF 		bl	millis_timer_Start
  12:SoC_manager.c **** }
  39              		.loc 1 12 0
  40 0008 80BD     		pop	{r7, pc}
  41              		.cfi_endproc
  42              	.LFE63:
  43              		.size	SoC_init, .-SoC_init
  44 000a 00BF     		.section	.text.SoC_volt_calc,"ax",%progbits
  45              		.align	2
ARM GAS  D:\Windows\AppData\Local\Temp\ccyawUhw.s 			page 2


  46              		.global	SoC_volt_calc
  47              		.thumb
  48              		.thumb_func
  49              		.type	SoC_volt_calc, %function
  50              	SoC_volt_calc:
  51              	.LFB64:
  13:SoC_manager.c **** 
  14:SoC_manager.c **** //voltage SoC
  15:SoC_manager.c **** void SoC_volt_calc() {
  52              		.loc 1 15 0
  53              		.cfi_startproc
  54              		@ args = 0, pretend = 0, frame = 24
  55              		@ frame_needed = 1, uses_anonymous_args = 0
  56              		@ link register save eliminated.
  57 0000 80B4     		push	{r7}
  58              		.cfi_def_cfa_offset 4
  59              		.cfi_offset 7, -4
  60 0002 87B0     		sub	sp, sp, #28
  61              		.cfi_def_cfa_offset 32
  62 0004 00AF     		add	r7, sp, #0
  63              		.cfi_def_cfa_register 7
  16:SoC_manager.c **** 	uint32_t voltage_hex;
  17:SoC_manager.c **** 	uint32_t byte4 = BMS_VOLTAGE.data[7] << 24;
  64              		.loc 1 17 0
  65 0006 114B     		ldr	r3, .L3
  66 0008 9B7B     		ldrb	r3, [r3, #14]	@ zero_extendqisi2
  67 000a 1B06     		lsls	r3, r3, #24
  68 000c 7B61     		str	r3, [r7, #20]
  18:SoC_manager.c **** 	uint32_t byte3 = BMS_VOLTAGE.data[6] << 16;
  69              		.loc 1 18 0
  70 000e 0F4B     		ldr	r3, .L3
  71 0010 5B7B     		ldrb	r3, [r3, #13]	@ zero_extendqisi2
  72 0012 1B04     		lsls	r3, r3, #16
  73 0014 3B61     		str	r3, [r7, #16]
  19:SoC_manager.c **** 	uint32_t byte2 = BMS_VOLTAGE.data[5] << 8;
  74              		.loc 1 19 0
  75 0016 0D4B     		ldr	r3, .L3
  76 0018 1B7B     		ldrb	r3, [r3, #12]	@ zero_extendqisi2
  77 001a 1B02     		lsls	r3, r3, #8
  78 001c FB60     		str	r3, [r7, #12]
  20:SoC_manager.c **** 	uint32_t byte1 = BMS_VOLTAGE.data[4];
  79              		.loc 1 20 0
  80 001e 0B4B     		ldr	r3, .L3
  81 0020 DB7A     		ldrb	r3, [r3, #11]	@ zero_extendqisi2
  82 0022 BB60     		str	r3, [r7, #8]
  21:SoC_manager.c **** 	voltage_hex = byte4 | byte3 | byte2 | byte1;
  83              		.loc 1 21 0
  84 0024 7A69     		ldr	r2, [r7, #20]
  85 0026 3B69     		ldr	r3, [r7, #16]
  86 0028 1A43     		orrs	r2, r2, r3
  87 002a FB68     		ldr	r3, [r7, #12]
  88 002c 1A43     		orrs	r2, r2, r3
  89 002e BB68     		ldr	r3, [r7, #8]
  90 0030 1343     		orrs	r3, r3, r2
  91 0032 7B60     		str	r3, [r7, #4]
  22:SoC_manager.c **** 	
  23:SoC_manager.c **** 	//voltage = 0x0001C3E3;
ARM GAS  D:\Windows\AppData\Local\Temp\ccyawUhw.s 			page 3


  24:SoC_manager.c **** 	//sprintf(volt_string, "%03d.%01dV", voltage/1000, voltage/100%10);
  25:SoC_manager.c ****     
  26:SoC_manager.c ****     long voltage = (voltage_hex/1000);
  92              		.loc 1 26 0
  93 0034 7B68     		ldr	r3, [r7, #4]
  94 0036 064A     		ldr	r2, .L3+4
  95 0038 A2FB0323 		umull	r2, r3, r2, r3
  96 003c 9B09     		lsrs	r3, r3, #6
  97 003e 3B60     		str	r3, [r7]
  27:SoC_manager.c ****     int SoC_pct;
  28:SoC_manager.c **** }...
  98              		.loc 1 28 0
  99 0040 1C37     		adds	r7, r7, #28
 100              		.cfi_def_cfa_offset 4
 101 0042 BD46     		mov	sp, r7
 102              		.cfi_def_cfa_register 13
 103              		@ sp needed
 104 0044 5DF8047B 		ldr	r7, [sp], #4
 105              		.cfi_restore 7
 106              		.cfi_def_cfa_offset 0
 107 0048 7047     		bx	lr
 108              	.L4:
 109 004a 00BF     		.align	2
 110              	.L3:
 111 004c 00000000 		.word	BMS_VOLTAGE
 112 0050 D34D6210 		.word	274877907
 113              		.cfi_endproc
 114              	.LFE64:
 115              		.size	SoC_volt_calc, .-SoC_volt_calc
 116              		.text
 117              	.Letext0:
 118              		.file 2 "d:\\programming\\cypress\\psoc creator\\4.0\\psoc creator\\import\\gnu\\arm\\4.9.3\\arm-n
 119              		.file 3 "d:\\programming\\cypress\\psoc creator\\4.0\\psoc creator\\import\\gnu\\arm\\4.9.3\\arm-n
 120              		.file 4 "data.h"
 121              		.file 5 "Generated_Source\\PSoC5/core_cm3.h"