ARM GAS  D:\Windows\AppData\Local\Temp\ccVWsfag.s 			page 1


   1              		.syntax unified
   2              		.cpu cortex-m3
   3              		.fpu softvfp
   4              		.eabi_attribute 20, 1
   5              		.eabi_attribute 21, 1
   6              		.eabi_attribute 23, 3
   7              		.eabi_attribute 24, 1
   8              		.eabi_attribute 25, 1
   9              		.eabi_attribute 26, 1
  10              		.eabi_attribute 30, 6
  11              		.eabi_attribute 34, 1
  12              		.eabi_attribute 18, 4
  13              		.thumb
  14              		.file	"speed_manager.c"
  15              		.text
  16              	.Ltext0:
  17              		.cfi_sections	.debug_frame
  18              		.comm	Serial_Command,1,1
  19              		.comm	StringToPrint,90,4
  20              		.comm	Channel_1_Count,4,4
  21              		.comm	Channel_2_Count,4,4
  22              		.comm	Channel_3_Count,4,4
  23              		.comm	Channel_4_Count,4,4
  24              		.bss
  25              		.align	2
  26              	intFlag:
  27 0000 00000000 		.space	4
  28              		.align	2
  29              	intFlag2:
  30 0004 00000000 		.space	4
  31              		.align	2
  32              	intFlag3:
  33 0008 00000000 		.space	4
  34              		.align	2
  35              	intFlag4:
  36 000c 00000000 		.space	4
  37              		.comm	Tacho_freq,4,4
  38              		.comm	pulselen,4,4
  39              		.comm	Tacho_freq2,4,4
  40              		.comm	pulselen2,4,4
  41              		.comm	Tacho_freq3,4,4
  42              		.comm	pulselen3,4,4
  43              		.comm	Tacho_freq4,4,4
  44              		.comm	pulselen4,4,4
  45              		.comm	voltage,4,4
  46              		.section	.text.Channel1_isr_Handler,"ax",%progbits
  47              		.align	2
  48              		.global	Channel1_isr_Handler
  49              		.thumb
  50              		.thumb_func
  51              		.type	Channel1_isr_Handler, %function
  52              	Channel1_isr_Handler:
  53              	.LFB63:
  54              		.file 1 "speed_manager.c"
   1:speed_manager.c **** /*
   2:speed_manager.c **** Reciprocal Counter based frequency measurement of tachometer sensor
   3:speed_manager.c **** resolution = 1/sysclk  (hz) = 1 us currently
ARM GAS  D:\Windows\AppData\Local\Temp\ccVWsfag.s 			page 2


   4:speed_manager.c **** highest freq = sysclk/2 = 500000Hz currently
   5:speed_manager.c **** lowest freq = 1/period = 0.2 Hz currently
   6:speed_manager.c **** 
   7:speed_manager.c **** pulselen = [period - count] / timerclk
   8:speed_manager.c **** freq = 1/[2pulselen]
   9:speed_manager.c **** 
  10:speed_manager.c ****     1 - front left
  11:speed_manager.c ****     2 - front right //currently no hardware
  12:speed_manager.c ****     3 - rear left
  13:speed_manager.c ****     4 - rear right
  14:speed_manager.c **** */
  15:speed_manager.c **** 
  16:speed_manager.c **** #include "speed_manager.h"
  17:speed_manager.c **** #include <stdlib.h>
  18:speed_manager.c **** #include <math.h>
  19:speed_manager.c **** #include <stdio.h>
  20:speed_manager.c **** 
  21:speed_manager.c **** extern CAN_1_TX_MSG SENS_STAT;		//0x247
  22:speed_manager.c **** extern CAN_1_DATA_BYTES_MSG data;
  23:speed_manager.c **** 
  24:speed_manager.c **** char Serial_Command;
  25:speed_manager.c **** char StringToPrint[90];
  26:speed_manager.c **** volatile uint32 Channel_1_Count, Channel_2_Count, Channel_3_Count, Channel_4_Count;
  27:speed_manager.c **** static int intFlag = 0;
  28:speed_manager.c **** static int intFlag2 = 0;
  29:speed_manager.c **** static int intFlag3 = 0;
  30:speed_manager.c **** static int intFlag4 = 0;
  31:speed_manager.c **** float32 Tacho_freq;
  32:speed_manager.c **** float32 pulselen;
  33:speed_manager.c **** float32 Tacho_freq2;
  34:speed_manager.c **** float32 pulselen2;
  35:speed_manager.c **** float32 Tacho_freq3;
  36:speed_manager.c **** float32 pulselen3;
  37:speed_manager.c **** float32 Tacho_freq4;
  38:speed_manager.c **** float32 pulselen4;
  39:speed_manager.c **** float32 voltage;
  40:speed_manager.c **** 
  41:speed_manager.c **** CY_ISR(Channel1_isr_Handler){
  55              		.loc 1 41 0
  56              		.cfi_startproc
  57              		@ args = 0, pretend = 0, frame = 0
  58              		@ frame_needed = 1, uses_anonymous_args = 0
  59 0000 80B5     		push	{r7, lr}
  60              		.cfi_def_cfa_offset 8
  61              		.cfi_offset 7, -8
  62              		.cfi_offset 14, -4
  63 0002 00AF     		add	r7, sp, #0
  64              		.cfi_def_cfa_register 7
  42:speed_manager.c ****     Channel_1_Count = Channel_1_Timer_ReadCounter();
  65              		.loc 1 42 0
  66 0004 FFF7FEFF 		bl	Channel_1_Timer_ReadCounter
  67 0008 0346     		mov	r3, r0
  68 000a 1A46     		mov	r2, r3
  69 000c 0A4B     		ldr	r3, .L3
  70 000e 1A60     		str	r2, [r3]
  43:speed_manager.c ****     intFlag = Channel_1_Timer_ReadStatusRegister();  
  71              		.loc 1 43 0
ARM GAS  D:\Windows\AppData\Local\Temp\ccVWsfag.s 			page 3


  72 0010 FFF7FEFF 		bl	Channel_1_Timer_ReadStatusRegister
  73 0014 0346     		mov	r3, r0
  74 0016 1A46     		mov	r2, r3
  75 0018 084B     		ldr	r3, .L3+4
  76 001a 1A60     		str	r2, [r3]
  44:speed_manager.c ****     CR1_Write(1);
  77              		.loc 1 44 0
  78 001c 0120     		movs	r0, #1
  79 001e FFF7FEFF 		bl	CR1_Write
  45:speed_manager.c ****       
  46:speed_manager.c ****     if(intFlag & Channel_1_Timer_STATUS_TC)
  80              		.loc 1 46 0
  81 0022 064B     		ldr	r3, .L3+4
  82 0024 1B68     		ldr	r3, [r3]
  83 0026 03F00103 		and	r3, r3, #1
  84 002a 002B     		cmp	r3, #0
  85 002c 02D0     		beq	.L1
  47:speed_manager.c ****         Channel_1_Count = 0;
  86              		.loc 1 47 0
  87 002e 024B     		ldr	r3, .L3
  88 0030 0022     		movs	r2, #0
  89 0032 1A60     		str	r2, [r3]
  90              	.L1:
  48:speed_manager.c **** }
  91              		.loc 1 48 0
  92 0034 80BD     		pop	{r7, pc}
  93              	.L4:
  94 0036 00BF     		.align	2
  95              	.L3:
  96 0038 00000000 		.word	Channel_1_Count
  97 003c 00000000 		.word	intFlag
  98              		.cfi_endproc
  99              	.LFE63:
 100              		.size	Channel1_isr_Handler, .-Channel1_isr_Handler
 101              		.section	.text.Channel3_isr_Handler,"ax",%progbits
 102              		.align	2
 103              		.global	Channel3_isr_Handler
 104              		.thumb
 105              		.thumb_func
 106              		.type	Channel3_isr_Handler, %function
 107              	Channel3_isr_Handler:
 108              	.LFB64:
  49:speed_manager.c **** /*
  50:speed_manager.c **** CY_ISR(Channel2_isr_Handler){
  51:speed_manager.c ****     Channel_2_Count = Channel_2_Timer_ReadCounter();
  52:speed_manager.c ****     intFlag2 = Channel_2_Timer_ReadStatusRegister();  
  53:speed_manager.c ****     CR2_Write(1);
  54:speed_manager.c ****       
  55:speed_manager.c ****     if(intFlag2 & Channel_2_Timer_STATUS_TC)
  56:speed_manager.c ****         Channel_2_Count = 0;
  57:speed_manager.c **** }
  58:speed_manager.c **** */
  59:speed_manager.c **** CY_ISR(Channel3_isr_Handler){
 109              		.loc 1 59 0
 110              		.cfi_startproc
 111              		@ args = 0, pretend = 0, frame = 0
 112              		@ frame_needed = 1, uses_anonymous_args = 0
ARM GAS  D:\Windows\AppData\Local\Temp\ccVWsfag.s 			page 4


 113 0000 80B5     		push	{r7, lr}
 114              		.cfi_def_cfa_offset 8
 115              		.cfi_offset 7, -8
 116              		.cfi_offset 14, -4
 117 0002 00AF     		add	r7, sp, #0
 118              		.cfi_def_cfa_register 7
  60:speed_manager.c ****     Channel_3_Count = Channel_3_Timer_ReadCounter();
 119              		.loc 1 60 0
 120 0004 FFF7FEFF 		bl	Channel_3_Timer_ReadCounter
 121 0008 0346     		mov	r3, r0
 122 000a 1A46     		mov	r2, r3
 123 000c 0A4B     		ldr	r3, .L7
 124 000e 1A60     		str	r2, [r3]
  61:speed_manager.c ****     intFlag3 = Channel_3_Timer_ReadStatusRegister();  
 125              		.loc 1 61 0
 126 0010 FFF7FEFF 		bl	Channel_3_Timer_ReadStatusRegister
 127 0014 0346     		mov	r3, r0
 128 0016 1A46     		mov	r2, r3
 129 0018 084B     		ldr	r3, .L7+4
 130 001a 1A60     		str	r2, [r3]
  62:speed_manager.c ****     CR3_Write(1);
 131              		.loc 1 62 0
 132 001c 0120     		movs	r0, #1
 133 001e FFF7FEFF 		bl	CR3_Write
  63:speed_manager.c ****       
  64:speed_manager.c ****     if(intFlag3 & Channel_3_Timer_STATUS_TC)
 134              		.loc 1 64 0
 135 0022 064B     		ldr	r3, .L7+4
 136 0024 1B68     		ldr	r3, [r3]
 137 0026 03F00103 		and	r3, r3, #1
 138 002a 002B     		cmp	r3, #0
 139 002c 02D0     		beq	.L5
  65:speed_manager.c ****         Channel_3_Count = 0;
 140              		.loc 1 65 0
 141 002e 024B     		ldr	r3, .L7
 142 0030 0022     		movs	r2, #0
 143 0032 1A60     		str	r2, [r3]
 144              	.L5:
  66:speed_manager.c **** }
 145              		.loc 1 66 0
 146 0034 80BD     		pop	{r7, pc}
 147              	.L8:
 148 0036 00BF     		.align	2
 149              	.L7:
 150 0038 00000000 		.word	Channel_3_Count
 151 003c 08000000 		.word	intFlag3
 152              		.cfi_endproc
 153              	.LFE64:
 154              		.size	Channel3_isr_Handler, .-Channel3_isr_Handler
 155              		.section	.text.Channel4_isr_Handler,"ax",%progbits
 156              		.align	2
 157              		.global	Channel4_isr_Handler
 158              		.thumb
 159              		.thumb_func
 160              		.type	Channel4_isr_Handler, %function
 161              	Channel4_isr_Handler:
 162              	.LFB65:
ARM GAS  D:\Windows\AppData\Local\Temp\ccVWsfag.s 			page 5


  67:speed_manager.c **** CY_ISR(Channel4_isr_Handler){
 163              		.loc 1 67 0
 164              		.cfi_startproc
 165              		@ args = 0, pretend = 0, frame = 0
 166              		@ frame_needed = 1, uses_anonymous_args = 0
 167 0000 80B5     		push	{r7, lr}
 168              		.cfi_def_cfa_offset 8
 169              		.cfi_offset 7, -8
 170              		.cfi_offset 14, -4
 171 0002 00AF     		add	r7, sp, #0
 172              		.cfi_def_cfa_register 7
  68:speed_manager.c ****     Channel_4_Count = Channel_4_Timer_ReadCounter();
 173              		.loc 1 68 0
 174 0004 FFF7FEFF 		bl	Channel_4_Timer_ReadCounter
 175 0008 0346     		mov	r3, r0
 176 000a 1A46     		mov	r2, r3
 177 000c 0A4B     		ldr	r3, .L11
 178 000e 1A60     		str	r2, [r3]
  69:speed_manager.c ****     intFlag4 = Channel_4_Timer_ReadStatusRegister();  
 179              		.loc 1 69 0
 180 0010 FFF7FEFF 		bl	Channel_4_Timer_ReadStatusRegister
 181 0014 0346     		mov	r3, r0
 182 0016 1A46     		mov	r2, r3
 183 0018 084B     		ldr	r3, .L11+4
 184 001a 1A60     		str	r2, [r3]
  70:speed_manager.c ****     CR4_Write(1);
 185              		.loc 1 70 0
 186 001c 0120     		movs	r0, #1
 187 001e FFF7FEFF 		bl	CR4_Write
  71:speed_manager.c ****       
  72:speed_manager.c ****     if(intFlag4 & Channel_4_Timer_STATUS_TC)
 188              		.loc 1 72 0
 189 0022 064B     		ldr	r3, .L11+4
 190 0024 1B68     		ldr	r3, [r3]
 191 0026 03F00103 		and	r3, r3, #1
 192 002a 002B     		cmp	r3, #0
 193 002c 02D0     		beq	.L9
  73:speed_manager.c ****         Channel_4_Count = 0; 
 194              		.loc 1 73 0
 195 002e 024B     		ldr	r3, .L11
 196 0030 0022     		movs	r2, #0
 197 0032 1A60     		str	r2, [r3]
 198              	.L9:
  74:speed_manager.c **** }
 199              		.loc 1 74 0
 200 0034 80BD     		pop	{r7, pc}
 201              	.L12:
 202 0036 00BF     		.align	2
 203              	.L11:
 204 0038 00000000 		.word	Channel_4_Count
 205 003c 0C000000 		.word	intFlag4
 206              		.cfi_endproc
 207              	.LFE65:
 208              		.size	Channel4_isr_Handler, .-Channel4_isr_Handler
 209              		.section	.text.speed_init,"ax",%progbits
 210              		.align	2
 211              		.global	speed_init
ARM GAS  D:\Windows\AppData\Local\Temp\ccVWsfag.s 			page 6


 212              		.thumb
 213              		.thumb_func
 214              		.type	speed_init, %function
 215              	speed_init:
 216              	.LFB66:
  75:speed_manager.c **** void speed_init() {
 217              		.loc 1 75 0
 218              		.cfi_startproc
 219              		@ args = 0, pretend = 0, frame = 0
 220              		@ frame_needed = 1, uses_anonymous_args = 0
 221 0000 80B5     		push	{r7, lr}
 222              		.cfi_def_cfa_offset 8
 223              		.cfi_offset 7, -8
 224              		.cfi_offset 14, -4
 225 0002 00AF     		add	r7, sp, #0
 226              		.cfi_def_cfa_register 7
  76:speed_manager.c ****     Channel_1_isr_StartEx(Channel1_isr_Handler); 
 227              		.loc 1 76 0
 228 0004 1048     		ldr	r0, .L14
 229 0006 FFF7FEFF 		bl	Channel_1_isr_StartEx
  77:speed_manager.c ****     Channel_1_Timer_Start();
 230              		.loc 1 77 0
 231 000a FFF7FEFF 		bl	Channel_1_Timer_Start
  78:speed_manager.c ****     DVDAC_1_Start();
 232              		.loc 1 78 0
 233 000e FFF7FEFF 		bl	DVDAC_1_Start
  79:speed_manager.c ****     Comp_1_Start();
 234              		.loc 1 79 0
 235 0012 FFF7FEFF 		bl	Comp_1_Start
  80:speed_manager.c ****     //My_ADC_1_Start();
  81:speed_manager.c ****     PGA_1_Start();
 236              		.loc 1 81 0
 237 0016 FFF7FEFF 		bl	PGA_1_Start
  82:speed_manager.c ****     /*
  83:speed_manager.c ****     Channel_2_isr_StartEx(Channel2_isr_Handler); 
  84:speed_manager.c ****     Channel_2_Timer_Start();
  85:speed_manager.c ****     DVDAC_2_Start();
  86:speed_manager.c ****     Comp_2_Start();
  87:speed_manager.c ****     PGA_2_Start();
  88:speed_manager.c ****     */
  89:speed_manager.c ****     Channel_3_isr_StartEx(Channel3_isr_Handler); 
 238              		.loc 1 89 0
 239 001a 0C48     		ldr	r0, .L14+4
 240 001c FFF7FEFF 		bl	Channel_3_isr_StartEx
  90:speed_manager.c ****     Channel_3_Timer_Start();
 241              		.loc 1 90 0
 242 0020 FFF7FEFF 		bl	Channel_3_Timer_Start
  91:speed_manager.c ****     DVDAC_3_Start();
 243              		.loc 1 91 0
 244 0024 FFF7FEFF 		bl	DVDAC_3_Start
  92:speed_manager.c ****     Comp_3_Start();
 245              		.loc 1 92 0
 246 0028 FFF7FEFF 		bl	Comp_3_Start
  93:speed_manager.c ****     PGA_3_Start();
 247              		.loc 1 93 0
 248 002c FFF7FEFF 		bl	PGA_3_Start
  94:speed_manager.c **** 	
ARM GAS  D:\Windows\AppData\Local\Temp\ccVWsfag.s 			page 7


  95:speed_manager.c **** 	Channel_4_isr_StartEx(Channel4_isr_Handler); 
 249              		.loc 1 95 0
 250 0030 0748     		ldr	r0, .L14+8
 251 0032 FFF7FEFF 		bl	Channel_4_isr_StartEx
  96:speed_manager.c ****     Channel_4_Timer_Start();
 252              		.loc 1 96 0
 253 0036 FFF7FEFF 		bl	Channel_4_Timer_Start
  97:speed_manager.c ****     DVDAC_4_Start();
 254              		.loc 1 97 0
 255 003a FFF7FEFF 		bl	DVDAC_4_Start
  98:speed_manager.c ****     Comp_4_Start();
 256              		.loc 1 98 0
 257 003e FFF7FEFF 		bl	Comp_4_Start
  99:speed_manager.c ****     PGA_4_Start();
 258              		.loc 1 99 0
 259 0042 FFF7FEFF 		bl	PGA_4_Start
 100:speed_manager.c **** 	
 101:speed_manager.c **** 	//TestPWM_Start();
 102:speed_manager.c **** }
 260              		.loc 1 102 0
 261 0046 80BD     		pop	{r7, pc}
 262              	.L15:
 263              		.align	2
 264              	.L14:
 265 0048 00000000 		.word	Channel1_isr_Handler
 266 004c 00000000 		.word	Channel3_isr_Handler
 267 0050 00000000 		.word	Channel4_isr_Handler
 268              		.cfi_endproc
 269              	.LFE66:
 270              		.size	speed_init, .-speed_init
 271              		.global	__aeabi_ui2f
 272              		.global	__aeabi_fdiv
 273              		.global	__aeabi_fadd
 274              		.section	.text.speed_sense,"ax",%progbits
 275              		.align	2
 276              		.global	speed_sense
 277              		.thumb
 278              		.thumb_func
 279              		.type	speed_sense, %function
 280              	speed_sense:
 281              	.LFB67:
 103:speed_manager.c **** 
 104:speed_manager.c **** void speed_sense() {
 282              		.loc 1 104 0
 283              		.cfi_startproc
 284              		@ args = 0, pretend = 0, frame = 0
 285              		@ frame_needed = 1, uses_anonymous_args = 0
 286 0000 80B5     		push	{r7, lr}
 287              		.cfi_def_cfa_offset 8
 288              		.cfi_offset 7, -8
 289              		.cfi_offset 14, -4
 290 0002 00AF     		add	r7, sp, #0
 291              		.cfi_def_cfa_register 7
 105:speed_manager.c ****     /*debugging
 106:speed_manager.c **** 	if(UART_1_ReadRxStatus() == UART_1_RX_STS_FIFO_NOTEMPTY){
 107:speed_manager.c ****         Serial_Command=UART_1_GetChar();
 108:speed_manager.c ****     }
ARM GAS  D:\Windows\AppData\Local\Temp\ccVWsfag.s 			page 8


 109:speed_manager.c ****     //UART_1_ClearTxBuffer();
 110:speed_manager.c ****     //UART_1_ClearTxBuffer();
 111:speed_manager.c ****     My_ADC_StartConvert();
 112:speed_manager.c ****     voltage = My_ADC_CountsTo_Volts(My_ADC_GetResult32());
 113:speed_manager.c **** 	*/
 114:speed_manager.c **** 	
 115:speed_manager.c ****    	if(Channel_1_Count >= threshold){
 292              		.loc 1 115 0
 293 0004 484B     		ldr	r3, .L23
 294 0006 1B68     		ldr	r3, [r3]
 295 0008 484A     		ldr	r2, .L23+4
 296 000a 9342     		cmp	r3, r2
 297 000c 04D9     		bls	.L17
 116:speed_manager.c ****         Tacho_freq = 0;
 298              		.loc 1 116 0
 299 000e 484B     		ldr	r3, .L23+8
 300 0010 4FF00002 		mov	r2, #0
 301 0014 1A60     		str	r2, [r3]	@ float
 302 0016 24E0     		b	.L18
 303              	.L17:
 117:speed_manager.c ****     }
 118:speed_manager.c ****     else {
 119:speed_manager.c ****     	pulselen = (Ch1Period - Channel_1_Count)/((float) timerCLK);
 304              		.loc 1 119 0
 305 0018 434B     		ldr	r3, .L23
 306 001a 1A68     		ldr	r2, [r3]
 307 001c 454B     		ldr	r3, .L23+12
 308 001e 9B1A     		subs	r3, r3, r2
 309 0020 1846     		mov	r0, r3
 310 0022 FFF7FEFF 		bl	__aeabi_ui2f
 311 0026 0346     		mov	r3, r0
 312 0028 1846     		mov	r0, r3
 313 002a 4349     		ldr	r1, .L23+16
 314 002c FFF7FEFF 		bl	__aeabi_fdiv
 315 0030 0346     		mov	r3, r0
 316 0032 1A46     		mov	r2, r3
 317 0034 414B     		ldr	r3, .L23+20
 318 0036 1A60     		str	r2, [r3]	@ float
 120:speed_manager.c ****     	Tacho_freq = (1/(2*pulselen))/numSpokes1;
 319              		.loc 1 120 0
 320 0038 404B     		ldr	r3, .L23+20
 321 003a 1B68     		ldr	r3, [r3]	@ float
 322 003c 1846     		mov	r0, r3
 323 003e 1946     		mov	r1, r3
 324 0040 FFF7FEFF 		bl	__aeabi_fadd
 325 0044 0346     		mov	r3, r0
 326 0046 4FF07E50 		mov	r0, #1065353216
 327 004a 1946     		mov	r1, r3
 328 004c FFF7FEFF 		bl	__aeabi_fdiv
 329 0050 0346     		mov	r3, r0
 330 0052 1846     		mov	r0, r3
 331 0054 3A49     		ldr	r1, .L23+24
 332 0056 FFF7FEFF 		bl	__aeabi_fdiv
 333 005a 0346     		mov	r3, r0
 334 005c 1A46     		mov	r2, r3
 335 005e 344B     		ldr	r3, .L23+8
 336 0060 1A60     		str	r2, [r3]	@ float
ARM GAS  D:\Windows\AppData\Local\Temp\ccVWsfag.s 			page 9


 337              	.L18:
 121:speed_manager.c ****     }
 122:speed_manager.c ****     /*
 123:speed_manager.c ****     if(Channel_2_Count >= threshold) {
 124:speed_manager.c ****         Tacho_freq2 = 0;
 125:speed_manager.c ****     }
 126:speed_manager.c ****     else {
 127:speed_manager.c ****    		pulselen2 = (Ch2Period - Channel_2_Count)/((float) timerCLK);
 128:speed_manager.c ****     	Tacho_freq2 = (1/(2*pulselen2))/numSpokes2;
 129:speed_manager.c ****     }
 130:speed_manager.c ****     */
 131:speed_manager.c ****     if(Channel_3_Count >= threshold) {
 338              		.loc 1 131 0
 339 0062 384B     		ldr	r3, .L23+28
 340 0064 1B68     		ldr	r3, [r3]
 341 0066 314A     		ldr	r2, .L23+4
 342 0068 9342     		cmp	r3, r2
 343 006a 04D9     		bls	.L19
 132:speed_manager.c ****         Tacho_freq3 = 0;
 344              		.loc 1 132 0
 345 006c 364B     		ldr	r3, .L23+32
 346 006e 4FF00002 		mov	r2, #0
 347 0072 1A60     		str	r2, [r3]	@ float
 348 0074 24E0     		b	.L20
 349              	.L19:
 133:speed_manager.c ****     }
 134:speed_manager.c ****     else {
 135:speed_manager.c **** 	    pulselen3 = (Ch3Period - Channel_3_Count)/((float) timerCLK);
 350              		.loc 1 135 0
 351 0076 334B     		ldr	r3, .L23+28
 352 0078 1A68     		ldr	r2, [r3]
 353 007a 2E4B     		ldr	r3, .L23+12
 354 007c 9B1A     		subs	r3, r3, r2
 355 007e 1846     		mov	r0, r3
 356 0080 FFF7FEFF 		bl	__aeabi_ui2f
 357 0084 0346     		mov	r3, r0
 358 0086 1846     		mov	r0, r3
 359 0088 2B49     		ldr	r1, .L23+16
 360 008a FFF7FEFF 		bl	__aeabi_fdiv
 361 008e 0346     		mov	r3, r0
 362 0090 1A46     		mov	r2, r3
 363 0092 2E4B     		ldr	r3, .L23+36
 364 0094 1A60     		str	r2, [r3]	@ float
 136:speed_manager.c **** 	    Tacho_freq3 = (1/(2*pulselen3))/numSpokes3;
 365              		.loc 1 136 0
 366 0096 2D4B     		ldr	r3, .L23+36
 367 0098 1B68     		ldr	r3, [r3]	@ float
 368 009a 1846     		mov	r0, r3
 369 009c 1946     		mov	r1, r3
 370 009e FFF7FEFF 		bl	__aeabi_fadd
 371 00a2 0346     		mov	r3, r0
 372 00a4 4FF07E50 		mov	r0, #1065353216
 373 00a8 1946     		mov	r1, r3
 374 00aa FFF7FEFF 		bl	__aeabi_fdiv
 375 00ae 0346     		mov	r3, r0
 376 00b0 1846     		mov	r0, r3
 377 00b2 2349     		ldr	r1, .L23+24
ARM GAS  D:\Windows\AppData\Local\Temp\ccVWsfag.s 			page 10


 378 00b4 FFF7FEFF 		bl	__aeabi_fdiv
 379 00b8 0346     		mov	r3, r0
 380 00ba 1A46     		mov	r2, r3
 381 00bc 224B     		ldr	r3, .L23+32
 382 00be 1A60     		str	r2, [r3]	@ float
 383              	.L20:
 137:speed_manager.c ****     }
 138:speed_manager.c ****     
 139:speed_manager.c **** 	if(Channel_4_Count >= threshold) {
 384              		.loc 1 139 0
 385 00c0 234B     		ldr	r3, .L23+40
 386 00c2 1B68     		ldr	r3, [r3]
 387 00c4 194A     		ldr	r2, .L23+4
 388 00c6 9342     		cmp	r3, r2
 389 00c8 04D9     		bls	.L21
 140:speed_manager.c ****         Tacho_freq4 = 0;
 390              		.loc 1 140 0
 391 00ca 224B     		ldr	r3, .L23+44
 392 00cc 4FF00002 		mov	r2, #0
 393 00d0 1A60     		str	r2, [r3]	@ float
 394 00d2 24E0     		b	.L22
 395              	.L21:
 141:speed_manager.c ****     }
 142:speed_manager.c ****     else {
 143:speed_manager.c **** 	    pulselen4 = (Ch4Period - Channel_4_Count)/((float) timerCLK);
 396              		.loc 1 143 0
 397 00d4 1E4B     		ldr	r3, .L23+40
 398 00d6 1A68     		ldr	r2, [r3]
 399 00d8 164B     		ldr	r3, .L23+12
 400 00da 9B1A     		subs	r3, r3, r2
 401 00dc 1846     		mov	r0, r3
 402 00de FFF7FEFF 		bl	__aeabi_ui2f
 403 00e2 0346     		mov	r3, r0
 404 00e4 1846     		mov	r0, r3
 405 00e6 1449     		ldr	r1, .L23+16
 406 00e8 FFF7FEFF 		bl	__aeabi_fdiv
 407 00ec 0346     		mov	r3, r0
 408 00ee 1A46     		mov	r2, r3
 409 00f0 194B     		ldr	r3, .L23+48
 410 00f2 1A60     		str	r2, [r3]	@ float
 144:speed_manager.c **** 	    Tacho_freq4 = (1/(2*pulselen4))/numSpokes4;
 411              		.loc 1 144 0
 412 00f4 184B     		ldr	r3, .L23+48
 413 00f6 1B68     		ldr	r3, [r3]	@ float
 414 00f8 1846     		mov	r0, r3
 415 00fa 1946     		mov	r1, r3
 416 00fc FFF7FEFF 		bl	__aeabi_fadd
 417 0100 0346     		mov	r3, r0
 418 0102 4FF07E50 		mov	r0, #1065353216
 419 0106 1946     		mov	r1, r3
 420 0108 FFF7FEFF 		bl	__aeabi_fdiv
 421 010c 0346     		mov	r3, r0
 422 010e 1846     		mov	r0, r3
 423 0110 0B49     		ldr	r1, .L23+24
 424 0112 FFF7FEFF 		bl	__aeabi_fdiv
 425 0116 0346     		mov	r3, r0
 426 0118 1A46     		mov	r2, r3
ARM GAS  D:\Windows\AppData\Local\Temp\ccVWsfag.s 			page 11


 427 011a 0E4B     		ldr	r3, .L23+44
 428 011c 1A60     		str	r2, [r3]	@ float
 429              	.L22:
 145:speed_manager.c ****     }
 146:speed_manager.c ****     
 147:speed_manager.c **** 	//sprintf(StringToPrint," %lf  %lf %d \r\n",Tacho_freq,voltage,comparator_out_Read());
 148:speed_manager.c **** 	//sprintf(StringToPrint," %lf  %lf %lf \r\n",Tacho_freq,Tacho_freq2,Tacho_freq3);
 149:speed_manager.c **** 	//UART_1_PutString(StringToPrint);
 150:speed_manager.c **** 	CyDelay(2);  
 430              		.loc 1 150 0
 431 011e 0220     		movs	r0, #2
 432 0120 FFF7FEFF 		bl	CyDelay
 151:speed_manager.c **** }...
 433              		.loc 1 151 0
 434 0124 80BD     		pop	{r7, pc}
 435              	.L24:
 436 0126 00BF     		.align	2
 437              	.L23:
 438 0128 00000000 		.word	Channel_1_Count
 439 012c DB4A4C00 		.word	4999899
 440 0130 00000000 		.word	Tacho_freq
 441 0134 404B4C00 		.word	5000000
 442 0138 00247449 		.word	1232348160
 443 013c 00000000 		.word	pulselen
 444 0140 0000C040 		.word	1086324736
 445 0144 00000000 		.word	Channel_3_Count
 446 0148 00000000 		.word	Tacho_freq3
 447 014c 00000000 		.word	pulselen3
 448 0150 00000000 		.word	Channel_4_Count
 449 0154 00000000 		.word	Tacho_freq4
 450 0158 00000000 		.word	pulselen4
 451              		.cfi_endproc
 452              	.LFE67:
 453              		.size	speed_sense, .-speed_sense
 454              		.text
 455              	.Letext0:
 456              		.file 2 "d:\\programming\\cypress\\psoc creator\\4.0\\psoc creator\\import\\gnu\\arm\\4.9.3\\arm-n
 457              		.file 3 "d:\\programming\\cypress\\psoc creator\\4.0\\psoc creator\\import\\gnu\\arm\\4.9.3\\arm-n
 458              		.file 4 "Generated_Source\\PSoC5/cytypes.h"
 459              		.file 5 "Generated_Source\\PSoC5/core_cm3.h"