ARM GAS  D:\Windows\AppData\Local\Temp\ccLjcK0k.s 			page 1


   1              		.syntax unified
   2              		.cpu cortex-m3
   3              		.fpu softvfp
   4              		.eabi_attribute 20, 1
   5              		.eabi_attribute 21, 1
   6              		.eabi_attribute 23, 3
   7              		.eabi_attribute 24, 1
   8              		.eabi_attribute 25, 1
   9              		.eabi_attribute 26, 1
  10              		.eabi_attribute 30, 6
  11              		.eabi_attribute 34, 1
  12              		.eabi_attribute 18, 4
  13              		.thumb
  14              		.file	"xbee_spi.c"
  15              		.text
  16              	.Ltext0:
  17              		.cfi_sections	.debug_frame
  18              		.comm	xbee_spi_txBuffer,64,4
  19              		.comm	xbee_spi_txBufferFull,1,1
  20              		.comm	xbee_spi_txBufferRead,1,1
  21              		.comm	xbee_spi_txBufferWrite,1,1
  22              		.global	xbee_spi_initVar
  23              		.bss
  24              		.type	xbee_spi_initVar, %object
  25              		.size	xbee_spi_initVar, 1
  26              	xbee_spi_initVar:
  27 0000 00       		.space	1
  28              		.comm	xbee_spi_swStatusTx,1,1
  29              		.comm	xbee_spi_swStatusRx,1,1
  30              		.section	.text.xbee_spi_Init,"ax",%progbits
  31              		.align	2
  32              		.global	xbee_spi_Init
  33              		.thumb
  34              		.thumb_func
  35              		.type	xbee_spi_Init, %function
  36              	xbee_spi_Init:
  37              	.LFB0:
  38              		.file 1 "Generated_Source\\PSoC5\\xbee_spi.c"
   1:Generated_Source\PSoC5/xbee_spi.c **** /*******************************************************************************
   2:Generated_Source\PSoC5/xbee_spi.c **** * File Name: xbee_spi.c
   3:Generated_Source\PSoC5/xbee_spi.c **** * Version 2.50
   4:Generated_Source\PSoC5/xbee_spi.c **** *
   5:Generated_Source\PSoC5/xbee_spi.c **** * Description:
   6:Generated_Source\PSoC5/xbee_spi.c **** *  This file provides all API functionality of the SPI Master component.
   7:Generated_Source\PSoC5/xbee_spi.c **** *
   8:Generated_Source\PSoC5/xbee_spi.c **** * Note:
   9:Generated_Source\PSoC5/xbee_spi.c **** *  None.
  10:Generated_Source\PSoC5/xbee_spi.c **** *
  11:Generated_Source\PSoC5/xbee_spi.c **** ********************************************************************************
  12:Generated_Source\PSoC5/xbee_spi.c **** * Copyright 2008-2015, Cypress Semiconductor Corporation.  All rights reserved.
  13:Generated_Source\PSoC5/xbee_spi.c **** * You may use this file only in accordance with the license, terms, conditions,
  14:Generated_Source\PSoC5/xbee_spi.c **** * disclaimers, and limitations in the end user license agreement accompanying
  15:Generated_Source\PSoC5/xbee_spi.c **** * the software package with which this file was provided.
  16:Generated_Source\PSoC5/xbee_spi.c **** *******************************************************************************/
  17:Generated_Source\PSoC5/xbee_spi.c **** 
  18:Generated_Source\PSoC5/xbee_spi.c **** #include "xbee_spi_PVT.h"
  19:Generated_Source\PSoC5/xbee_spi.c **** 
ARM GAS  D:\Windows\AppData\Local\Temp\ccLjcK0k.s 			page 2


  20:Generated_Source\PSoC5/xbee_spi.c **** #if(xbee_spi_TX_SOFTWARE_BUF_ENABLED)
  21:Generated_Source\PSoC5/xbee_spi.c ****     volatile uint8 xbee_spi_txBuffer[xbee_spi_TX_BUFFER_SIZE];
  22:Generated_Source\PSoC5/xbee_spi.c ****     volatile uint8 xbee_spi_txBufferFull;
  23:Generated_Source\PSoC5/xbee_spi.c ****     volatile uint8 xbee_spi_txBufferRead;
  24:Generated_Source\PSoC5/xbee_spi.c ****     volatile uint8 xbee_spi_txBufferWrite;
  25:Generated_Source\PSoC5/xbee_spi.c **** #endif /* (xbee_spi_TX_SOFTWARE_BUF_ENABLED) */
  26:Generated_Source\PSoC5/xbee_spi.c **** 
  27:Generated_Source\PSoC5/xbee_spi.c **** #if(xbee_spi_RX_SOFTWARE_BUF_ENABLED)
  28:Generated_Source\PSoC5/xbee_spi.c ****     volatile uint8 xbee_spi_rxBuffer[xbee_spi_RX_BUFFER_SIZE];
  29:Generated_Source\PSoC5/xbee_spi.c ****     volatile uint8 xbee_spi_rxBufferFull;
  30:Generated_Source\PSoC5/xbee_spi.c ****     volatile uint8 xbee_spi_rxBufferRead;
  31:Generated_Source\PSoC5/xbee_spi.c ****     volatile uint8 xbee_spi_rxBufferWrite;
  32:Generated_Source\PSoC5/xbee_spi.c **** #endif /* (xbee_spi_RX_SOFTWARE_BUF_ENABLED) */
  33:Generated_Source\PSoC5/xbee_spi.c **** 
  34:Generated_Source\PSoC5/xbee_spi.c **** uint8 xbee_spi_initVar = 0u;
  35:Generated_Source\PSoC5/xbee_spi.c **** 
  36:Generated_Source\PSoC5/xbee_spi.c **** volatile uint8 xbee_spi_swStatusTx;
  37:Generated_Source\PSoC5/xbee_spi.c **** volatile uint8 xbee_spi_swStatusRx;
  38:Generated_Source\PSoC5/xbee_spi.c **** 
  39:Generated_Source\PSoC5/xbee_spi.c **** 
  40:Generated_Source\PSoC5/xbee_spi.c **** /*******************************************************************************
  41:Generated_Source\PSoC5/xbee_spi.c **** * Function Name: xbee_spi_Init
  42:Generated_Source\PSoC5/xbee_spi.c **** ********************************************************************************
  43:Generated_Source\PSoC5/xbee_spi.c **** *
  44:Generated_Source\PSoC5/xbee_spi.c **** * Summary:
  45:Generated_Source\PSoC5/xbee_spi.c **** *  Inits/Restores default SPIM configuration provided with customizer.
  46:Generated_Source\PSoC5/xbee_spi.c **** *
  47:Generated_Source\PSoC5/xbee_spi.c **** * Parameters:
  48:Generated_Source\PSoC5/xbee_spi.c **** *  None.
  49:Generated_Source\PSoC5/xbee_spi.c **** *
  50:Generated_Source\PSoC5/xbee_spi.c **** * Return:
  51:Generated_Source\PSoC5/xbee_spi.c **** *  None.
  52:Generated_Source\PSoC5/xbee_spi.c **** *
  53:Generated_Source\PSoC5/xbee_spi.c **** * Side Effects:
  54:Generated_Source\PSoC5/xbee_spi.c **** *  When this function is called it initializes all of the necessary parameters
  55:Generated_Source\PSoC5/xbee_spi.c **** *  for execution. i.e. setting the initial interrupt mask, configuring the
  56:Generated_Source\PSoC5/xbee_spi.c **** *  interrupt service routine, configuring the bit-counter parameters and
  57:Generated_Source\PSoC5/xbee_spi.c **** *  clearing the FIFO and Status Register.
  58:Generated_Source\PSoC5/xbee_spi.c **** *
  59:Generated_Source\PSoC5/xbee_spi.c **** * Reentrant:
  60:Generated_Source\PSoC5/xbee_spi.c **** *  No.
  61:Generated_Source\PSoC5/xbee_spi.c **** *
  62:Generated_Source\PSoC5/xbee_spi.c **** *******************************************************************************/
  63:Generated_Source\PSoC5/xbee_spi.c **** void xbee_spi_Init(void) 
  64:Generated_Source\PSoC5/xbee_spi.c **** {
  39              		.loc 1 64 0
  40              		.cfi_startproc
  41              		@ args = 0, pretend = 0, frame = 0
  42              		@ frame_needed = 1, uses_anonymous_args = 0
  43 0000 80B5     		push	{r7, lr}
  44              		.cfi_def_cfa_offset 8
  45              		.cfi_offset 7, -8
  46              		.cfi_offset 14, -4
  47 0002 00AF     		add	r7, sp, #0
  48              		.cfi_def_cfa_register 7
  65:Generated_Source\PSoC5/xbee_spi.c ****     /* Initialize the Bit counter */
  66:Generated_Source\PSoC5/xbee_spi.c ****     xbee_spi_COUNTER_PERIOD_REG = xbee_spi_BITCTR_INIT;
ARM GAS  D:\Windows\AppData\Local\Temp\ccLjcK0k.s 			page 3


  49              		.loc 1 66 0
  50 0004 114B     		ldr	r3, .L2
  51 0006 0F22     		movs	r2, #15
  52 0008 1A70     		strb	r2, [r3]
  67:Generated_Source\PSoC5/xbee_spi.c **** 
  68:Generated_Source\PSoC5/xbee_spi.c ****     /* Init TX ISR  */
  69:Generated_Source\PSoC5/xbee_spi.c ****     #if(0u != xbee_spi_INTERNAL_TX_INT_ENABLED)
  70:Generated_Source\PSoC5/xbee_spi.c ****         CyIntDisable         (xbee_spi_TX_ISR_NUMBER);
  53              		.loc 1 70 0
  54 000a 114B     		ldr	r3, .L2+4
  55 000c 1022     		movs	r2, #16
  56 000e 1A60     		str	r2, [r3]
  71:Generated_Source\PSoC5/xbee_spi.c ****         CyIntSetPriority     (xbee_spi_TX_ISR_NUMBER,  xbee_spi_TX_ISR_PRIORITY);
  57              		.loc 1 71 0
  58 0010 0420     		movs	r0, #4
  59 0012 0721     		movs	r1, #7
  60 0014 FFF7FEFF 		bl	CyIntSetPriority
  72:Generated_Source\PSoC5/xbee_spi.c ****         (void) CyIntSetVector(xbee_spi_TX_ISR_NUMBER, &xbee_spi_TX_ISR);
  61              		.loc 1 72 0
  62 0018 0420     		movs	r0, #4
  63 001a 0E49     		ldr	r1, .L2+8
  64 001c FFF7FEFF 		bl	CyIntSetVector
  73:Generated_Source\PSoC5/xbee_spi.c ****     #endif /* (0u != xbee_spi_INTERNAL_TX_INT_ENABLED) */
  74:Generated_Source\PSoC5/xbee_spi.c **** 
  75:Generated_Source\PSoC5/xbee_spi.c ****     /* Init RX ISR  */
  76:Generated_Source\PSoC5/xbee_spi.c ****     #if(0u != xbee_spi_INTERNAL_RX_INT_ENABLED)
  77:Generated_Source\PSoC5/xbee_spi.c ****         CyIntDisable         (xbee_spi_RX_ISR_NUMBER);
  78:Generated_Source\PSoC5/xbee_spi.c ****         CyIntSetPriority     (xbee_spi_RX_ISR_NUMBER,  xbee_spi_RX_ISR_PRIORITY);
  79:Generated_Source\PSoC5/xbee_spi.c ****         (void) CyIntSetVector(xbee_spi_RX_ISR_NUMBER, &xbee_spi_RX_ISR);
  80:Generated_Source\PSoC5/xbee_spi.c ****     #endif /* (0u != xbee_spi_INTERNAL_RX_INT_ENABLED) */
  81:Generated_Source\PSoC5/xbee_spi.c **** 
  82:Generated_Source\PSoC5/xbee_spi.c ****     /* Clear any stray data from the RX and TX FIFO */
  83:Generated_Source\PSoC5/xbee_spi.c ****     xbee_spi_ClearFIFO();
  65              		.loc 1 83 0
  66 0020 FFF7FEFF 		bl	xbee_spi_ClearFIFO
  84:Generated_Source\PSoC5/xbee_spi.c **** 
  85:Generated_Source\PSoC5/xbee_spi.c ****     #if(xbee_spi_RX_SOFTWARE_BUF_ENABLED)
  86:Generated_Source\PSoC5/xbee_spi.c ****         xbee_spi_rxBufferFull  = 0u;
  87:Generated_Source\PSoC5/xbee_spi.c ****         xbee_spi_rxBufferRead  = 0u;
  88:Generated_Source\PSoC5/xbee_spi.c ****         xbee_spi_rxBufferWrite = 0u;
  89:Generated_Source\PSoC5/xbee_spi.c ****     #endif /* (xbee_spi_RX_SOFTWARE_BUF_ENABLED) */
  90:Generated_Source\PSoC5/xbee_spi.c **** 
  91:Generated_Source\PSoC5/xbee_spi.c ****     #if(xbee_spi_TX_SOFTWARE_BUF_ENABLED)
  92:Generated_Source\PSoC5/xbee_spi.c ****         xbee_spi_txBufferFull  = 0u;
  67              		.loc 1 92 0
  68 0024 0C4B     		ldr	r3, .L2+12
  69 0026 0022     		movs	r2, #0
  70 0028 1A70     		strb	r2, [r3]
  93:Generated_Source\PSoC5/xbee_spi.c ****         xbee_spi_txBufferRead  = 0u;
  71              		.loc 1 93 0
  72 002a 0C4B     		ldr	r3, .L2+16
  73 002c 0022     		movs	r2, #0
  74 002e 1A70     		strb	r2, [r3]
  94:Generated_Source\PSoC5/xbee_spi.c ****         xbee_spi_txBufferWrite = 0u;
  75              		.loc 1 94 0
  76 0030 0B4B     		ldr	r3, .L2+20
  77 0032 0022     		movs	r2, #0
ARM GAS  D:\Windows\AppData\Local\Temp\ccLjcK0k.s 			page 4


  78 0034 1A70     		strb	r2, [r3]
  95:Generated_Source\PSoC5/xbee_spi.c ****     #endif /* (xbee_spi_TX_SOFTWARE_BUF_ENABLED) */
  96:Generated_Source\PSoC5/xbee_spi.c **** 
  97:Generated_Source\PSoC5/xbee_spi.c ****     (void) xbee_spi_ReadTxStatus(); /* Clear Tx status and swStatusTx */
  79              		.loc 1 97 0
  80 0036 FFF7FEFF 		bl	xbee_spi_ReadTxStatus
  98:Generated_Source\PSoC5/xbee_spi.c ****     (void) xbee_spi_ReadRxStatus(); /* Clear Rx status and swStatusRx */
  81              		.loc 1 98 0
  82 003a FFF7FEFF 		bl	xbee_spi_ReadRxStatus
  99:Generated_Source\PSoC5/xbee_spi.c **** 
 100:Generated_Source\PSoC5/xbee_spi.c ****     /* Configure TX and RX interrupt mask */
 101:Generated_Source\PSoC5/xbee_spi.c ****     xbee_spi_TX_STATUS_MASK_REG = xbee_spi_TX_INIT_INTERRUPTS_MASK;
  83              		.loc 1 101 0
  84 003e 094B     		ldr	r3, .L2+24
  85 0040 0022     		movs	r2, #0
  86 0042 1A70     		strb	r2, [r3]
 102:Generated_Source\PSoC5/xbee_spi.c ****     xbee_spi_RX_STATUS_MASK_REG = xbee_spi_RX_INIT_INTERRUPTS_MASK;
  87              		.loc 1 102 0
  88 0044 084B     		ldr	r3, .L2+28
  89 0046 0022     		movs	r2, #0
  90 0048 1A70     		strb	r2, [r3]
 103:Generated_Source\PSoC5/xbee_spi.c **** }
  91              		.loc 1 103 0
  92 004a 80BD     		pop	{r7, pc}
  93              	.L3:
  94              		.align	2
  95              	.L2:
  96 004c 85650040 		.word	1073767813
  97 0050 80E100E0 		.word	-536813184
  98 0054 00000000 		.word	xbee_spi_TX_ISR
  99 0058 00000000 		.word	xbee_spi_txBufferFull
 100 005c 00000000 		.word	xbee_spi_txBufferRead
 101 0060 00000000 		.word	xbee_spi_txBufferWrite
 102 0064 86650040 		.word	1073767814
 103 0068 84640040 		.word	1073767556
 104              		.cfi_endproc
 105              	.LFE0:
 106              		.size	xbee_spi_Init, .-xbee_spi_Init
 107              		.section	.text.xbee_spi_Enable,"ax",%progbits
 108              		.align	2
 109              		.global	xbee_spi_Enable
 110              		.thumb
 111              		.thumb_func
 112              		.type	xbee_spi_Enable, %function
 113              	xbee_spi_Enable:
 114              	.LFB1:
 104:Generated_Source\PSoC5/xbee_spi.c **** 
 105:Generated_Source\PSoC5/xbee_spi.c **** 
 106:Generated_Source\PSoC5/xbee_spi.c **** /*******************************************************************************
 107:Generated_Source\PSoC5/xbee_spi.c **** * Function Name: xbee_spi_Enable
 108:Generated_Source\PSoC5/xbee_spi.c **** ********************************************************************************
 109:Generated_Source\PSoC5/xbee_spi.c **** *
 110:Generated_Source\PSoC5/xbee_spi.c **** * Summary:
 111:Generated_Source\PSoC5/xbee_spi.c **** *  Enable SPIM component.
 112:Generated_Source\PSoC5/xbee_spi.c **** *
 113:Generated_Source\PSoC5/xbee_spi.c **** * Parameters:
 114:Generated_Source\PSoC5/xbee_spi.c **** *  None.
ARM GAS  D:\Windows\AppData\Local\Temp\ccLjcK0k.s 			page 5


 115:Generated_Source\PSoC5/xbee_spi.c **** *
 116:Generated_Source\PSoC5/xbee_spi.c **** * Return:
 117:Generated_Source\PSoC5/xbee_spi.c **** *  None.
 118:Generated_Source\PSoC5/xbee_spi.c **** *
 119:Generated_Source\PSoC5/xbee_spi.c **** *******************************************************************************/
 120:Generated_Source\PSoC5/xbee_spi.c **** void xbee_spi_Enable(void) 
 121:Generated_Source\PSoC5/xbee_spi.c **** {
 115              		.loc 1 121 0
 116              		.cfi_startproc
 117              		@ args = 0, pretend = 0, frame = 8
 118              		@ frame_needed = 1, uses_anonymous_args = 0
 119 0000 80B5     		push	{r7, lr}
 120              		.cfi_def_cfa_offset 8
 121              		.cfi_offset 7, -8
 122              		.cfi_offset 14, -4
 123 0002 82B0     		sub	sp, sp, #8
 124              		.cfi_def_cfa_offset 16
 125 0004 00AF     		add	r7, sp, #0
 126              		.cfi_def_cfa_register 7
 122:Generated_Source\PSoC5/xbee_spi.c ****     uint8 enableInterrupts;
 123:Generated_Source\PSoC5/xbee_spi.c **** 
 124:Generated_Source\PSoC5/xbee_spi.c ****     enableInterrupts = CyEnterCriticalSection();
 127              		.loc 1 124 0
 128 0006 FFF7FEFF 		bl	CyEnterCriticalSection
 129 000a 0346     		mov	r3, r0
 130 000c FB71     		strb	r3, [r7, #7]
 125:Generated_Source\PSoC5/xbee_spi.c ****     xbee_spi_COUNTER_CONTROL_REG |= xbee_spi_CNTR_ENABLE;
 131              		.loc 1 125 0
 132 000e 124A     		ldr	r2, .L5
 133 0010 114B     		ldr	r3, .L5
 134 0012 1B78     		ldrb	r3, [r3]
 135 0014 DBB2     		uxtb	r3, r3
 136 0016 43F02003 		orr	r3, r3, #32
 137 001a DBB2     		uxtb	r3, r3
 138 001c 1370     		strb	r3, [r2]
 126:Generated_Source\PSoC5/xbee_spi.c ****     xbee_spi_TX_STATUS_ACTL_REG  |= xbee_spi_INT_ENABLE;
 139              		.loc 1 126 0
 140 001e 0F4A     		ldr	r2, .L5+4
 141 0020 0E4B     		ldr	r3, .L5+4
 142 0022 1B78     		ldrb	r3, [r3]
 143 0024 DBB2     		uxtb	r3, r3
 144 0026 43F01003 		orr	r3, r3, #16
 145 002a DBB2     		uxtb	r3, r3
 146 002c 1370     		strb	r3, [r2]
 127:Generated_Source\PSoC5/xbee_spi.c ****     xbee_spi_RX_STATUS_ACTL_REG  |= xbee_spi_INT_ENABLE;
 147              		.loc 1 127 0
 148 002e 0C4A     		ldr	r2, .L5+8
 149 0030 0B4B     		ldr	r3, .L5+8
 150 0032 1B78     		ldrb	r3, [r3]
 151 0034 DBB2     		uxtb	r3, r3
 152 0036 43F01003 		orr	r3, r3, #16
 153 003a DBB2     		uxtb	r3, r3
 154 003c 1370     		strb	r3, [r2]
 128:Generated_Source\PSoC5/xbee_spi.c ****     CyExitCriticalSection(enableInterrupts);
 155              		.loc 1 128 0
 156 003e FB79     		ldrb	r3, [r7, #7]	@ zero_extendqisi2
 157 0040 1846     		mov	r0, r3
ARM GAS  D:\Windows\AppData\Local\Temp\ccLjcK0k.s 			page 6


 158 0042 FFF7FEFF 		bl	CyExitCriticalSection
 129:Generated_Source\PSoC5/xbee_spi.c **** 
 130:Generated_Source\PSoC5/xbee_spi.c ****     #if(0u != xbee_spi_INTERNAL_CLOCK)
 131:Generated_Source\PSoC5/xbee_spi.c ****         xbee_spi_IntClock_Enable();
 159              		.loc 1 131 0
 160 0046 FFF7FEFF 		bl	xbee_spi_IntClock_Start
 132:Generated_Source\PSoC5/xbee_spi.c ****     #endif /* (0u != xbee_spi_INTERNAL_CLOCK) */
 133:Generated_Source\PSoC5/xbee_spi.c **** 
 134:Generated_Source\PSoC5/xbee_spi.c ****     xbee_spi_EnableTxInt();
 161              		.loc 1 134 0
 162 004a FFF7FEFF 		bl	xbee_spi_EnableTxInt
 135:Generated_Source\PSoC5/xbee_spi.c ****     xbee_spi_EnableRxInt();
 163              		.loc 1 135 0
 164 004e FFF7FEFF 		bl	xbee_spi_EnableRxInt
 136:Generated_Source\PSoC5/xbee_spi.c **** }
 165              		.loc 1 136 0
 166 0052 0837     		adds	r7, r7, #8
 167              		.cfi_def_cfa_offset 8
 168 0054 BD46     		mov	sp, r7
 169              		.cfi_def_cfa_register 13
 170              		@ sp needed
 171 0056 80BD     		pop	{r7, pc}
 172              	.L6:
 173              		.align	2
 174              	.L5:
 175 0058 95650040 		.word	1073767829
 176 005c 96650040 		.word	1073767830
 177 0060 94640040 		.word	1073767572
 178              		.cfi_endproc
 179              	.LFE1:
 180              		.size	xbee_spi_Enable, .-xbee_spi_Enable
 181              		.section	.text.xbee_spi_Start,"ax",%progbits
 182              		.align	2
 183              		.global	xbee_spi_Start
 184              		.thumb
 185              		.thumb_func
 186              		.type	xbee_spi_Start, %function
 187              	xbee_spi_Start:
 188              	.LFB2:
 137:Generated_Source\PSoC5/xbee_spi.c **** 
 138:Generated_Source\PSoC5/xbee_spi.c **** 
 139:Generated_Source\PSoC5/xbee_spi.c **** /*******************************************************************************
 140:Generated_Source\PSoC5/xbee_spi.c **** * Function Name: xbee_spi_Start
 141:Generated_Source\PSoC5/xbee_spi.c **** ********************************************************************************
 142:Generated_Source\PSoC5/xbee_spi.c **** *
 143:Generated_Source\PSoC5/xbee_spi.c **** * Summary:
 144:Generated_Source\PSoC5/xbee_spi.c **** *  Initialize and Enable the SPI Master component.
 145:Generated_Source\PSoC5/xbee_spi.c **** *
 146:Generated_Source\PSoC5/xbee_spi.c **** * Parameters:
 147:Generated_Source\PSoC5/xbee_spi.c **** *  None.
 148:Generated_Source\PSoC5/xbee_spi.c **** *
 149:Generated_Source\PSoC5/xbee_spi.c **** * Return:
 150:Generated_Source\PSoC5/xbee_spi.c **** *  None.
 151:Generated_Source\PSoC5/xbee_spi.c **** *
 152:Generated_Source\PSoC5/xbee_spi.c **** * Global variables:
 153:Generated_Source\PSoC5/xbee_spi.c **** *  xbee_spi_initVar - used to check initial configuration, modified on
 154:Generated_Source\PSoC5/xbee_spi.c **** *  first function call.
ARM GAS  D:\Windows\AppData\Local\Temp\ccLjcK0k.s 			page 7


 155:Generated_Source\PSoC5/xbee_spi.c **** *
 156:Generated_Source\PSoC5/xbee_spi.c **** * Theory:
 157:Generated_Source\PSoC5/xbee_spi.c **** *  Enable the clock input to enable operation.
 158:Generated_Source\PSoC5/xbee_spi.c **** *
 159:Generated_Source\PSoC5/xbee_spi.c **** * Reentrant:
 160:Generated_Source\PSoC5/xbee_spi.c **** *  No.
 161:Generated_Source\PSoC5/xbee_spi.c **** *
 162:Generated_Source\PSoC5/xbee_spi.c **** *******************************************************************************/
 163:Generated_Source\PSoC5/xbee_spi.c **** void xbee_spi_Start(void) 
 164:Generated_Source\PSoC5/xbee_spi.c **** {
 189              		.loc 1 164 0
 190              		.cfi_startproc
 191              		@ args = 0, pretend = 0, frame = 0
 192              		@ frame_needed = 1, uses_anonymous_args = 0
 193 0000 80B5     		push	{r7, lr}
 194              		.cfi_def_cfa_offset 8
 195              		.cfi_offset 7, -8
 196              		.cfi_offset 14, -4
 197 0002 00AF     		add	r7, sp, #0
 198              		.cfi_def_cfa_register 7
 165:Generated_Source\PSoC5/xbee_spi.c ****     if(0u == xbee_spi_initVar)
 199              		.loc 1 165 0
 200 0004 054B     		ldr	r3, .L9
 201 0006 1B78     		ldrb	r3, [r3]	@ zero_extendqisi2
 202 0008 002B     		cmp	r3, #0
 203 000a 04D1     		bne	.L8
 166:Generated_Source\PSoC5/xbee_spi.c ****     {
 167:Generated_Source\PSoC5/xbee_spi.c ****         xbee_spi_Init();
 204              		.loc 1 167 0
 205 000c FFF7FEFF 		bl	xbee_spi_Init
 168:Generated_Source\PSoC5/xbee_spi.c ****         xbee_spi_initVar = 1u;
 206              		.loc 1 168 0
 207 0010 024B     		ldr	r3, .L9
 208 0012 0122     		movs	r2, #1
 209 0014 1A70     		strb	r2, [r3]
 210              	.L8:
 169:Generated_Source\PSoC5/xbee_spi.c ****     }
 170:Generated_Source\PSoC5/xbee_spi.c **** 
 171:Generated_Source\PSoC5/xbee_spi.c ****     xbee_spi_Enable();
 211              		.loc 1 171 0
 212 0016 FFF7FEFF 		bl	xbee_spi_Enable
 172:Generated_Source\PSoC5/xbee_spi.c **** }
 213              		.loc 1 172 0
 214 001a 80BD     		pop	{r7, pc}
 215              	.L10:
 216              		.align	2
 217              	.L9:
 218 001c 00000000 		.word	xbee_spi_initVar
 219              		.cfi_endproc
 220              	.LFE2:
 221              		.size	xbee_spi_Start, .-xbee_spi_Start
 222              		.section	.text.xbee_spi_Stop,"ax",%progbits
 223              		.align	2
 224              		.global	xbee_spi_Stop
 225              		.thumb
 226              		.thumb_func
 227              		.type	xbee_spi_Stop, %function
ARM GAS  D:\Windows\AppData\Local\Temp\ccLjcK0k.s 			page 8


 228              	xbee_spi_Stop:
 229              	.LFB3:
 173:Generated_Source\PSoC5/xbee_spi.c **** 
 174:Generated_Source\PSoC5/xbee_spi.c **** 
 175:Generated_Source\PSoC5/xbee_spi.c **** /*******************************************************************************
 176:Generated_Source\PSoC5/xbee_spi.c **** * Function Name: xbee_spi_Stop
 177:Generated_Source\PSoC5/xbee_spi.c **** ********************************************************************************
 178:Generated_Source\PSoC5/xbee_spi.c **** *
 179:Generated_Source\PSoC5/xbee_spi.c **** * Summary:
 180:Generated_Source\PSoC5/xbee_spi.c **** *  Disable the SPI Master component.
 181:Generated_Source\PSoC5/xbee_spi.c **** *
 182:Generated_Source\PSoC5/xbee_spi.c **** * Parameters:
 183:Generated_Source\PSoC5/xbee_spi.c **** *  None.
 184:Generated_Source\PSoC5/xbee_spi.c **** *
 185:Generated_Source\PSoC5/xbee_spi.c **** * Return:
 186:Generated_Source\PSoC5/xbee_spi.c **** *  None.
 187:Generated_Source\PSoC5/xbee_spi.c **** *
 188:Generated_Source\PSoC5/xbee_spi.c **** * Theory:
 189:Generated_Source\PSoC5/xbee_spi.c **** *  Disable the clock input to enable operation.
 190:Generated_Source\PSoC5/xbee_spi.c **** *
 191:Generated_Source\PSoC5/xbee_spi.c **** *******************************************************************************/
 192:Generated_Source\PSoC5/xbee_spi.c **** void xbee_spi_Stop(void) 
 193:Generated_Source\PSoC5/xbee_spi.c **** {
 230              		.loc 1 193 0
 231              		.cfi_startproc
 232              		@ args = 0, pretend = 0, frame = 8
 233              		@ frame_needed = 1, uses_anonymous_args = 0
 234 0000 80B5     		push	{r7, lr}
 235              		.cfi_def_cfa_offset 8
 236              		.cfi_offset 7, -8
 237              		.cfi_offset 14, -4
 238 0002 82B0     		sub	sp, sp, #8
 239              		.cfi_def_cfa_offset 16
 240 0004 00AF     		add	r7, sp, #0
 241              		.cfi_def_cfa_register 7
 194:Generated_Source\PSoC5/xbee_spi.c ****     uint8 enableInterrupts;
 195:Generated_Source\PSoC5/xbee_spi.c **** 
 196:Generated_Source\PSoC5/xbee_spi.c ****     enableInterrupts = CyEnterCriticalSection();
 242              		.loc 1 196 0
 243 0006 FFF7FEFF 		bl	CyEnterCriticalSection
 244 000a 0346     		mov	r3, r0
 245 000c FB71     		strb	r3, [r7, #7]
 197:Generated_Source\PSoC5/xbee_spi.c ****     xbee_spi_TX_STATUS_ACTL_REG &= ((uint8) ~xbee_spi_INT_ENABLE);
 246              		.loc 1 197 0
 247 000e 0E4A     		ldr	r2, .L12
 248 0010 0D4B     		ldr	r3, .L12
 249 0012 1B78     		ldrb	r3, [r3]
 250 0014 DBB2     		uxtb	r3, r3
 251 0016 23F01003 		bic	r3, r3, #16
 252 001a DBB2     		uxtb	r3, r3
 253 001c 1370     		strb	r3, [r2]
 198:Generated_Source\PSoC5/xbee_spi.c ****     xbee_spi_RX_STATUS_ACTL_REG &= ((uint8) ~xbee_spi_INT_ENABLE);
 254              		.loc 1 198 0
 255 001e 0B4A     		ldr	r2, .L12+4
 256 0020 0A4B     		ldr	r3, .L12+4
 257 0022 1B78     		ldrb	r3, [r3]
 258 0024 DBB2     		uxtb	r3, r3
ARM GAS  D:\Windows\AppData\Local\Temp\ccLjcK0k.s 			page 9


 259 0026 23F01003 		bic	r3, r3, #16
 260 002a DBB2     		uxtb	r3, r3
 261 002c 1370     		strb	r3, [r2]
 199:Generated_Source\PSoC5/xbee_spi.c ****     CyExitCriticalSection(enableInterrupts);
 262              		.loc 1 199 0
 263 002e FB79     		ldrb	r3, [r7, #7]	@ zero_extendqisi2
 264 0030 1846     		mov	r0, r3
 265 0032 FFF7FEFF 		bl	CyExitCriticalSection
 200:Generated_Source\PSoC5/xbee_spi.c **** 
 201:Generated_Source\PSoC5/xbee_spi.c ****     #if(0u != xbee_spi_INTERNAL_CLOCK)
 202:Generated_Source\PSoC5/xbee_spi.c ****         xbee_spi_IntClock_Disable();
 266              		.loc 1 202 0
 267 0036 FFF7FEFF 		bl	xbee_spi_IntClock_Stop
 203:Generated_Source\PSoC5/xbee_spi.c ****     #endif /* (0u != xbee_spi_INTERNAL_CLOCK) */
 204:Generated_Source\PSoC5/xbee_spi.c **** 
 205:Generated_Source\PSoC5/xbee_spi.c ****     xbee_spi_DisableTxInt();
 268              		.loc 1 205 0
 269 003a FFF7FEFF 		bl	xbee_spi_DisableTxInt
 206:Generated_Source\PSoC5/xbee_spi.c ****     xbee_spi_DisableRxInt();
 270              		.loc 1 206 0
 271 003e FFF7FEFF 		bl	xbee_spi_DisableRxInt
 207:Generated_Source\PSoC5/xbee_spi.c **** }
 272              		.loc 1 207 0
 273 0042 0837     		adds	r7, r7, #8
 274              		.cfi_def_cfa_offset 8
 275 0044 BD46     		mov	sp, r7
 276              		.cfi_def_cfa_register 13
 277              		@ sp needed
 278 0046 80BD     		pop	{r7, pc}
 279              	.L13:
 280              		.align	2
 281              	.L12:
 282 0048 96650040 		.word	1073767830
 283 004c 94640040 		.word	1073767572
 284              		.cfi_endproc
 285              	.LFE3:
 286              		.size	xbee_spi_Stop, .-xbee_spi_Stop
 287              		.section	.text.xbee_spi_EnableTxInt,"ax",%progbits
 288              		.align	2
 289              		.global	xbee_spi_EnableTxInt
 290              		.thumb
 291              		.thumb_func
 292              		.type	xbee_spi_EnableTxInt, %function
 293              	xbee_spi_EnableTxInt:
 294              	.LFB4:
 208:Generated_Source\PSoC5/xbee_spi.c **** 
 209:Generated_Source\PSoC5/xbee_spi.c **** 
 210:Generated_Source\PSoC5/xbee_spi.c **** /*******************************************************************************
 211:Generated_Source\PSoC5/xbee_spi.c **** * Function Name: xbee_spi_EnableTxInt
 212:Generated_Source\PSoC5/xbee_spi.c **** ********************************************************************************
 213:Generated_Source\PSoC5/xbee_spi.c **** *
 214:Generated_Source\PSoC5/xbee_spi.c **** * Summary:
 215:Generated_Source\PSoC5/xbee_spi.c **** *  Enable internal Tx interrupt generation.
 216:Generated_Source\PSoC5/xbee_spi.c **** *
 217:Generated_Source\PSoC5/xbee_spi.c **** * Parameters:
 218:Generated_Source\PSoC5/xbee_spi.c **** *  None.
 219:Generated_Source\PSoC5/xbee_spi.c **** *
ARM GAS  D:\Windows\AppData\Local\Temp\ccLjcK0k.s 			page 10


 220:Generated_Source\PSoC5/xbee_spi.c **** * Return:
 221:Generated_Source\PSoC5/xbee_spi.c **** *  None.
 222:Generated_Source\PSoC5/xbee_spi.c **** *
 223:Generated_Source\PSoC5/xbee_spi.c **** * Theory:
 224:Generated_Source\PSoC5/xbee_spi.c **** *  Enable the internal Tx interrupt output -or- the interrupt component itself.
 225:Generated_Source\PSoC5/xbee_spi.c **** *
 226:Generated_Source\PSoC5/xbee_spi.c **** *******************************************************************************/
 227:Generated_Source\PSoC5/xbee_spi.c **** void xbee_spi_EnableTxInt(void) 
 228:Generated_Source\PSoC5/xbee_spi.c **** {
 295              		.loc 1 228 0
 296              		.cfi_startproc
 297              		@ args = 0, pretend = 0, frame = 0
 298              		@ frame_needed = 1, uses_anonymous_args = 0
 299              		@ link register save eliminated.
 300 0000 80B4     		push	{r7}
 301              		.cfi_def_cfa_offset 4
 302              		.cfi_offset 7, -4
 303 0002 00AF     		add	r7, sp, #0
 304              		.cfi_def_cfa_register 7
 229:Generated_Source\PSoC5/xbee_spi.c ****     #if(0u != xbee_spi_INTERNAL_TX_INT_ENABLED)
 230:Generated_Source\PSoC5/xbee_spi.c ****         CyIntEnable(xbee_spi_TX_ISR_NUMBER);
 305              		.loc 1 230 0
 306 0004 034B     		ldr	r3, .L15
 307 0006 1022     		movs	r2, #16
 308 0008 1A60     		str	r2, [r3]
 231:Generated_Source\PSoC5/xbee_spi.c ****     #endif /* (0u != xbee_spi_INTERNAL_TX_INT_ENABLED) */
 232:Generated_Source\PSoC5/xbee_spi.c **** }
 309              		.loc 1 232 0
 310 000a BD46     		mov	sp, r7
 311              		.cfi_def_cfa_register 13
 312              		@ sp needed
 313 000c 5DF8047B 		ldr	r7, [sp], #4
 314              		.cfi_restore 7
 315              		.cfi_def_cfa_offset 0
 316 0010 7047     		bx	lr
 317              	.L16:
 318 0012 00BF     		.align	2
 319              	.L15:
 320 0014 00E100E0 		.word	-536813312
 321              		.cfi_endproc
 322              	.LFE4:
 323              		.size	xbee_spi_EnableTxInt, .-xbee_spi_EnableTxInt
 324              		.section	.text.xbee_spi_EnableRxInt,"ax",%progbits
 325              		.align	2
 326              		.global	xbee_spi_EnableRxInt
 327              		.thumb
 328              		.thumb_func
 329              		.type	xbee_spi_EnableRxInt, %function
 330              	xbee_spi_EnableRxInt:
 331              	.LFB5:
 233:Generated_Source\PSoC5/xbee_spi.c **** 
 234:Generated_Source\PSoC5/xbee_spi.c **** 
 235:Generated_Source\PSoC5/xbee_spi.c **** /*******************************************************************************
 236:Generated_Source\PSoC5/xbee_spi.c **** * Function Name: xbee_spi_EnableRxInt
 237:Generated_Source\PSoC5/xbee_spi.c **** ********************************************************************************
 238:Generated_Source\PSoC5/xbee_spi.c **** *
 239:Generated_Source\PSoC5/xbee_spi.c **** * Summary:
ARM GAS  D:\Windows\AppData\Local\Temp\ccLjcK0k.s 			page 11


 240:Generated_Source\PSoC5/xbee_spi.c **** *  Enable internal Rx interrupt generation.
 241:Generated_Source\PSoC5/xbee_spi.c **** *
 242:Generated_Source\PSoC5/xbee_spi.c **** * Parameters:
 243:Generated_Source\PSoC5/xbee_spi.c **** *  None.
 244:Generated_Source\PSoC5/xbee_spi.c **** *
 245:Generated_Source\PSoC5/xbee_spi.c **** * Return:
 246:Generated_Source\PSoC5/xbee_spi.c **** *  None.
 247:Generated_Source\PSoC5/xbee_spi.c **** *
 248:Generated_Source\PSoC5/xbee_spi.c **** * Theory:
 249:Generated_Source\PSoC5/xbee_spi.c **** *  Enable the internal Rx interrupt output -or- the interrupt component itself.
 250:Generated_Source\PSoC5/xbee_spi.c **** *
 251:Generated_Source\PSoC5/xbee_spi.c **** *******************************************************************************/
 252:Generated_Source\PSoC5/xbee_spi.c **** void xbee_spi_EnableRxInt(void) 
 253:Generated_Source\PSoC5/xbee_spi.c **** {
 332              		.loc 1 253 0
 333              		.cfi_startproc
 334              		@ args = 0, pretend = 0, frame = 0
 335              		@ frame_needed = 1, uses_anonymous_args = 0
 336              		@ link register save eliminated.
 337 0000 80B4     		push	{r7}
 338              		.cfi_def_cfa_offset 4
 339              		.cfi_offset 7, -4
 340 0002 00AF     		add	r7, sp, #0
 341              		.cfi_def_cfa_register 7
 254:Generated_Source\PSoC5/xbee_spi.c ****     #if(0u != xbee_spi_INTERNAL_RX_INT_ENABLED)
 255:Generated_Source\PSoC5/xbee_spi.c ****         CyIntEnable(xbee_spi_RX_ISR_NUMBER);
 256:Generated_Source\PSoC5/xbee_spi.c ****     #endif /* (0u != xbee_spi_INTERNAL_RX_INT_ENABLED) */
 257:Generated_Source\PSoC5/xbee_spi.c **** }
 342              		.loc 1 257 0
 343 0004 BD46     		mov	sp, r7
 344              		.cfi_def_cfa_register 13
 345              		@ sp needed
 346 0006 5DF8047B 		ldr	r7, [sp], #4
 347              		.cfi_restore 7
 348              		.cfi_def_cfa_offset 0
 349 000a 7047     		bx	lr
 350              		.cfi_endproc
 351              	.LFE5:
 352              		.size	xbee_spi_EnableRxInt, .-xbee_spi_EnableRxInt
 353              		.section	.text.xbee_spi_DisableTxInt,"ax",%progbits
 354              		.align	2
 355              		.global	xbee_spi_DisableTxInt
 356              		.thumb
 357              		.thumb_func
 358              		.type	xbee_spi_DisableTxInt, %function
 359              	xbee_spi_DisableTxInt:
 360              	.LFB6:
 258:Generated_Source\PSoC5/xbee_spi.c **** 
 259:Generated_Source\PSoC5/xbee_spi.c **** 
 260:Generated_Source\PSoC5/xbee_spi.c **** /*******************************************************************************
 261:Generated_Source\PSoC5/xbee_spi.c **** * Function Name: xbee_spi_DisableTxInt
 262:Generated_Source\PSoC5/xbee_spi.c **** ********************************************************************************
 263:Generated_Source\PSoC5/xbee_spi.c **** *
 264:Generated_Source\PSoC5/xbee_spi.c **** * Summary:
 265:Generated_Source\PSoC5/xbee_spi.c **** *  Disable internal Tx interrupt generation.
 266:Generated_Source\PSoC5/xbee_spi.c **** *
 267:Generated_Source\PSoC5/xbee_spi.c **** * Parameters:
ARM GAS  D:\Windows\AppData\Local\Temp\ccLjcK0k.s 			page 12


 268:Generated_Source\PSoC5/xbee_spi.c **** *  None.
 269:Generated_Source\PSoC5/xbee_spi.c **** *
 270:Generated_Source\PSoC5/xbee_spi.c **** * Return:
 271:Generated_Source\PSoC5/xbee_spi.c **** *  None.
 272:Generated_Source\PSoC5/xbee_spi.c **** *
 273:Generated_Source\PSoC5/xbee_spi.c **** * Theory:
 274:Generated_Source\PSoC5/xbee_spi.c **** *  Disable the internal Tx interrupt output -or- the interrupt component itself.
 275:Generated_Source\PSoC5/xbee_spi.c **** *
 276:Generated_Source\PSoC5/xbee_spi.c **** *******************************************************************************/
 277:Generated_Source\PSoC5/xbee_spi.c **** void xbee_spi_DisableTxInt(void) 
 278:Generated_Source\PSoC5/xbee_spi.c **** {
 361              		.loc 1 278 0
 362              		.cfi_startproc
 363              		@ args = 0, pretend = 0, frame = 0
 364              		@ frame_needed = 1, uses_anonymous_args = 0
 365              		@ link register save eliminated.
 366 0000 80B4     		push	{r7}
 367              		.cfi_def_cfa_offset 4
 368              		.cfi_offset 7, -4
 369 0002 00AF     		add	r7, sp, #0
 370              		.cfi_def_cfa_register 7
 279:Generated_Source\PSoC5/xbee_spi.c ****     #if(0u != xbee_spi_INTERNAL_TX_INT_ENABLED)
 280:Generated_Source\PSoC5/xbee_spi.c ****         CyIntDisable(xbee_spi_TX_ISR_NUMBER);
 371              		.loc 1 280 0
 372 0004 034B     		ldr	r3, .L19
 373 0006 1022     		movs	r2, #16
 374 0008 1A60     		str	r2, [r3]
 281:Generated_Source\PSoC5/xbee_spi.c ****     #endif /* (0u != xbee_spi_INTERNAL_TX_INT_ENABLED) */
 282:Generated_Source\PSoC5/xbee_spi.c **** }
 375              		.loc 1 282 0
 376 000a BD46     		mov	sp, r7
 377              		.cfi_def_cfa_register 13
 378              		@ sp needed
 379 000c 5DF8047B 		ldr	r7, [sp], #4
 380              		.cfi_restore 7
 381              		.cfi_def_cfa_offset 0
 382 0010 7047     		bx	lr
 383              	.L20:
 384 0012 00BF     		.align	2
 385              	.L19:
 386 0014 80E100E0 		.word	-536813184
 387              		.cfi_endproc
 388              	.LFE6:
 389              		.size	xbee_spi_DisableTxInt, .-xbee_spi_DisableTxInt
 390              		.section	.text.xbee_spi_DisableRxInt,"ax",%progbits
 391              		.align	2
 392              		.global	xbee_spi_DisableRxInt
 393              		.thumb
 394              		.thumb_func
 395              		.type	xbee_spi_DisableRxInt, %function
 396              	xbee_spi_DisableRxInt:
 397              	.LFB7:
 283:Generated_Source\PSoC5/xbee_spi.c **** 
 284:Generated_Source\PSoC5/xbee_spi.c **** 
 285:Generated_Source\PSoC5/xbee_spi.c **** /*******************************************************************************
 286:Generated_Source\PSoC5/xbee_spi.c **** * Function Name: xbee_spi_DisableRxInt
 287:Generated_Source\PSoC5/xbee_spi.c **** ********************************************************************************
ARM GAS  D:\Windows\AppData\Local\Temp\ccLjcK0k.s 			page 13


 288:Generated_Source\PSoC5/xbee_spi.c **** *
 289:Generated_Source\PSoC5/xbee_spi.c **** * Summary:
 290:Generated_Source\PSoC5/xbee_spi.c **** *  Disable internal Rx interrupt generation.
 291:Generated_Source\PSoC5/xbee_spi.c **** *
 292:Generated_Source\PSoC5/xbee_spi.c **** * Parameters:
 293:Generated_Source\PSoC5/xbee_spi.c **** *  None.
 294:Generated_Source\PSoC5/xbee_spi.c **** *
 295:Generated_Source\PSoC5/xbee_spi.c **** * Return:
 296:Generated_Source\PSoC5/xbee_spi.c **** *  None.
 297:Generated_Source\PSoC5/xbee_spi.c **** *
 298:Generated_Source\PSoC5/xbee_spi.c **** * Theory:
 299:Generated_Source\PSoC5/xbee_spi.c **** *  Disable the internal Rx interrupt output -or- the interrupt component itself.
 300:Generated_Source\PSoC5/xbee_spi.c **** *
 301:Generated_Source\PSoC5/xbee_spi.c **** *******************************************************************************/
 302:Generated_Source\PSoC5/xbee_spi.c **** void xbee_spi_DisableRxInt(void) 
 303:Generated_Source\PSoC5/xbee_spi.c **** {
 398              		.loc 1 303 0
 399              		.cfi_startproc
 400              		@ args = 0, pretend = 0, frame = 0
 401              		@ frame_needed = 1, uses_anonymous_args = 0
 402              		@ link register save eliminated.
 403 0000 80B4     		push	{r7}
 404              		.cfi_def_cfa_offset 4
 405              		.cfi_offset 7, -4
 406 0002 00AF     		add	r7, sp, #0
 407              		.cfi_def_cfa_register 7
 304:Generated_Source\PSoC5/xbee_spi.c ****     #if(0u != xbee_spi_INTERNAL_RX_INT_ENABLED)
 305:Generated_Source\PSoC5/xbee_spi.c ****         CyIntDisable(xbee_spi_RX_ISR_NUMBER);
 306:Generated_Source\PSoC5/xbee_spi.c ****     #endif /* (0u != xbee_spi_INTERNAL_RX_INT_ENABLED) */
 307:Generated_Source\PSoC5/xbee_spi.c **** }
 408              		.loc 1 307 0
 409 0004 BD46     		mov	sp, r7
 410              		.cfi_def_cfa_register 13
 411              		@ sp needed
 412 0006 5DF8047B 		ldr	r7, [sp], #4
 413              		.cfi_restore 7
 414              		.cfi_def_cfa_offset 0
 415 000a 7047     		bx	lr
 416              		.cfi_endproc
 417              	.LFE7:
 418              		.size	xbee_spi_DisableRxInt, .-xbee_spi_DisableRxInt
 419              		.section	.text.xbee_spi_SetTxInterruptMode,"ax",%progbits
 420              		.align	2
 421              		.global	xbee_spi_SetTxInterruptMode
 422              		.thumb
 423              		.thumb_func
 424              		.type	xbee_spi_SetTxInterruptMode, %function
 425              	xbee_spi_SetTxInterruptMode:
 426              	.LFB8:
 308:Generated_Source\PSoC5/xbee_spi.c **** 
 309:Generated_Source\PSoC5/xbee_spi.c **** 
 310:Generated_Source\PSoC5/xbee_spi.c **** /*******************************************************************************
 311:Generated_Source\PSoC5/xbee_spi.c **** * Function Name: xbee_spi_SetTxInterruptMode
 312:Generated_Source\PSoC5/xbee_spi.c **** ********************************************************************************
 313:Generated_Source\PSoC5/xbee_spi.c **** *
 314:Generated_Source\PSoC5/xbee_spi.c **** * Summary:
 315:Generated_Source\PSoC5/xbee_spi.c **** *  Configure which status bits trigger an interrupt event.
ARM GAS  D:\Windows\AppData\Local\Temp\ccLjcK0k.s 			page 14


 316:Generated_Source\PSoC5/xbee_spi.c **** *
 317:Generated_Source\PSoC5/xbee_spi.c **** * Parameters:
 318:Generated_Source\PSoC5/xbee_spi.c **** *  intSrc: An or'd combination of the desired status bit masks (defined in the
 319:Generated_Source\PSoC5/xbee_spi.c **** *  header file).
 320:Generated_Source\PSoC5/xbee_spi.c **** *
 321:Generated_Source\PSoC5/xbee_spi.c **** * Return:
 322:Generated_Source\PSoC5/xbee_spi.c **** *  None.
 323:Generated_Source\PSoC5/xbee_spi.c **** *
 324:Generated_Source\PSoC5/xbee_spi.c **** * Theory:
 325:Generated_Source\PSoC5/xbee_spi.c **** *  Enables the output of specific status bits to the interrupt controller.
 326:Generated_Source\PSoC5/xbee_spi.c **** *
 327:Generated_Source\PSoC5/xbee_spi.c **** *******************************************************************************/
 328:Generated_Source\PSoC5/xbee_spi.c **** void xbee_spi_SetTxInterruptMode(uint8 intSrc) 
 329:Generated_Source\PSoC5/xbee_spi.c **** {
 427              		.loc 1 329 0
 428              		.cfi_startproc
 429              		@ args = 0, pretend = 0, frame = 8
 430              		@ frame_needed = 1, uses_anonymous_args = 0
 431              		@ link register save eliminated.
 432 0000 80B4     		push	{r7}
 433              		.cfi_def_cfa_offset 4
 434              		.cfi_offset 7, -4
 435 0002 83B0     		sub	sp, sp, #12
 436              		.cfi_def_cfa_offset 16
 437 0004 00AF     		add	r7, sp, #0
 438              		.cfi_def_cfa_register 7
 439 0006 0346     		mov	r3, r0
 440 0008 FB71     		strb	r3, [r7, #7]
 330:Generated_Source\PSoC5/xbee_spi.c ****     xbee_spi_TX_STATUS_MASK_REG = intSrc;
 441              		.loc 1 330 0
 442 000a 044A     		ldr	r2, .L23
 443 000c FB79     		ldrb	r3, [r7, #7]
 444 000e 1370     		strb	r3, [r2]
 331:Generated_Source\PSoC5/xbee_spi.c **** }
 445              		.loc 1 331 0
 446 0010 0C37     		adds	r7, r7, #12
 447              		.cfi_def_cfa_offset 4
 448 0012 BD46     		mov	sp, r7
 449              		.cfi_def_cfa_register 13
 450              		@ sp needed
 451 0014 5DF8047B 		ldr	r7, [sp], #4
 452              		.cfi_restore 7
 453              		.cfi_def_cfa_offset 0
 454 0018 7047     		bx	lr
 455              	.L24:
 456 001a 00BF     		.align	2
 457              	.L23:
 458 001c 86650040 		.word	1073767814
 459              		.cfi_endproc
 460              	.LFE8:
 461              		.size	xbee_spi_SetTxInterruptMode, .-xbee_spi_SetTxInterruptMode
 462              		.section	.text.xbee_spi_SetRxInterruptMode,"ax",%progbits
 463              		.align	2
 464              		.global	xbee_spi_SetRxInterruptMode
 465              		.thumb
 466              		.thumb_func
 467              		.type	xbee_spi_SetRxInterruptMode, %function
ARM GAS  D:\Windows\AppData\Local\Temp\ccLjcK0k.s 			page 15


 468              	xbee_spi_SetRxInterruptMode:
 469              	.LFB9:
 332:Generated_Source\PSoC5/xbee_spi.c **** 
 333:Generated_Source\PSoC5/xbee_spi.c **** 
 334:Generated_Source\PSoC5/xbee_spi.c **** /*******************************************************************************
 335:Generated_Source\PSoC5/xbee_spi.c **** * Function Name: xbee_spi_SetRxInterruptMode
 336:Generated_Source\PSoC5/xbee_spi.c **** ********************************************************************************
 337:Generated_Source\PSoC5/xbee_spi.c **** *
 338:Generated_Source\PSoC5/xbee_spi.c **** * Summary:
 339:Generated_Source\PSoC5/xbee_spi.c **** *  Configure which status bits trigger an interrupt event.
 340:Generated_Source\PSoC5/xbee_spi.c **** *
 341:Generated_Source\PSoC5/xbee_spi.c **** * Parameters:
 342:Generated_Source\PSoC5/xbee_spi.c **** *  intSrc: An or'd combination of the desired status bit masks (defined in the
 343:Generated_Source\PSoC5/xbee_spi.c **** *  header file).
 344:Generated_Source\PSoC5/xbee_spi.c **** *
 345:Generated_Source\PSoC5/xbee_spi.c **** * Return:
 346:Generated_Source\PSoC5/xbee_spi.c **** *  None.
 347:Generated_Source\PSoC5/xbee_spi.c **** *
 348:Generated_Source\PSoC5/xbee_spi.c **** * Theory:
 349:Generated_Source\PSoC5/xbee_spi.c **** *  Enables the output of specific status bits to the interrupt controller.
 350:Generated_Source\PSoC5/xbee_spi.c **** *
 351:Generated_Source\PSoC5/xbee_spi.c **** *******************************************************************************/
 352:Generated_Source\PSoC5/xbee_spi.c **** void xbee_spi_SetRxInterruptMode(uint8 intSrc) 
 353:Generated_Source\PSoC5/xbee_spi.c **** {
 470              		.loc 1 353 0
 471              		.cfi_startproc
 472              		@ args = 0, pretend = 0, frame = 8
 473              		@ frame_needed = 1, uses_anonymous_args = 0
 474              		@ link register save eliminated.
 475 0000 80B4     		push	{r7}
 476              		.cfi_def_cfa_offset 4
 477              		.cfi_offset 7, -4
 478 0002 83B0     		sub	sp, sp, #12
 479              		.cfi_def_cfa_offset 16
 480 0004 00AF     		add	r7, sp, #0
 481              		.cfi_def_cfa_register 7
 482 0006 0346     		mov	r3, r0
 483 0008 FB71     		strb	r3, [r7, #7]
 354:Generated_Source\PSoC5/xbee_spi.c ****     xbee_spi_RX_STATUS_MASK_REG  = intSrc;
 484              		.loc 1 354 0
 485 000a 044A     		ldr	r2, .L26
 486 000c FB79     		ldrb	r3, [r7, #7]
 487 000e 1370     		strb	r3, [r2]
 355:Generated_Source\PSoC5/xbee_spi.c **** }
 488              		.loc 1 355 0
 489 0010 0C37     		adds	r7, r7, #12
 490              		.cfi_def_cfa_offset 4
 491 0012 BD46     		mov	sp, r7
 492              		.cfi_def_cfa_register 13
 493              		@ sp needed
 494 0014 5DF8047B 		ldr	r7, [sp], #4
 495              		.cfi_restore 7
 496              		.cfi_def_cfa_offset 0
 497 0018 7047     		bx	lr
 498              	.L27:
 499 001a 00BF     		.align	2
 500              	.L26:
ARM GAS  D:\Windows\AppData\Local\Temp\ccLjcK0k.s 			page 16


 501 001c 84640040 		.word	1073767556
 502              		.cfi_endproc
 503              	.LFE9:
 504              		.size	xbee_spi_SetRxInterruptMode, .-xbee_spi_SetRxInterruptMode
 505              		.section	.text.xbee_spi_ReadTxStatus,"ax",%progbits
 506              		.align	2
 507              		.global	xbee_spi_ReadTxStatus
 508              		.thumb
 509              		.thumb_func
 510              		.type	xbee_spi_ReadTxStatus, %function
 511              	xbee_spi_ReadTxStatus:
 512              	.LFB10:
 356:Generated_Source\PSoC5/xbee_spi.c **** 
 357:Generated_Source\PSoC5/xbee_spi.c **** 
 358:Generated_Source\PSoC5/xbee_spi.c **** /*******************************************************************************
 359:Generated_Source\PSoC5/xbee_spi.c **** * Function Name: xbee_spi_ReadTxStatus
 360:Generated_Source\PSoC5/xbee_spi.c **** ********************************************************************************
 361:Generated_Source\PSoC5/xbee_spi.c **** *
 362:Generated_Source\PSoC5/xbee_spi.c **** * Summary:
 363:Generated_Source\PSoC5/xbee_spi.c **** *  Read the Tx status register for the component.
 364:Generated_Source\PSoC5/xbee_spi.c **** *
 365:Generated_Source\PSoC5/xbee_spi.c **** * Parameters:
 366:Generated_Source\PSoC5/xbee_spi.c **** *  None.
 367:Generated_Source\PSoC5/xbee_spi.c **** *
 368:Generated_Source\PSoC5/xbee_spi.c **** * Return:
 369:Generated_Source\PSoC5/xbee_spi.c **** *  Contents of the Tx status register.
 370:Generated_Source\PSoC5/xbee_spi.c **** *
 371:Generated_Source\PSoC5/xbee_spi.c **** * Global variables:
 372:Generated_Source\PSoC5/xbee_spi.c **** *  xbee_spi_swStatusTx - used to store in software status register,
 373:Generated_Source\PSoC5/xbee_spi.c **** *  modified every function call - resets to zero.
 374:Generated_Source\PSoC5/xbee_spi.c **** *
 375:Generated_Source\PSoC5/xbee_spi.c **** * Theory:
 376:Generated_Source\PSoC5/xbee_spi.c **** *  Allows the user and the API to read the Tx status register for error
 377:Generated_Source\PSoC5/xbee_spi.c **** *  detection and flow control.
 378:Generated_Source\PSoC5/xbee_spi.c **** *
 379:Generated_Source\PSoC5/xbee_spi.c **** * Side Effects:
 380:Generated_Source\PSoC5/xbee_spi.c **** *  Clear Tx status register of the component.
 381:Generated_Source\PSoC5/xbee_spi.c **** *
 382:Generated_Source\PSoC5/xbee_spi.c **** * Reentrant:
 383:Generated_Source\PSoC5/xbee_spi.c **** *  No.
 384:Generated_Source\PSoC5/xbee_spi.c **** *
 385:Generated_Source\PSoC5/xbee_spi.c **** *******************************************************************************/
 386:Generated_Source\PSoC5/xbee_spi.c **** uint8 xbee_spi_ReadTxStatus(void) 
 387:Generated_Source\PSoC5/xbee_spi.c **** {
 513              		.loc 1 387 0
 514              		.cfi_startproc
 515              		@ args = 0, pretend = 0, frame = 8
 516              		@ frame_needed = 1, uses_anonymous_args = 0
 517 0000 80B5     		push	{r7, lr}
 518              		.cfi_def_cfa_offset 8
 519              		.cfi_offset 7, -8
 520              		.cfi_offset 14, -4
 521 0002 82B0     		sub	sp, sp, #8
 522              		.cfi_def_cfa_offset 16
 523 0004 00AF     		add	r7, sp, #0
 524              		.cfi_def_cfa_register 7
 388:Generated_Source\PSoC5/xbee_spi.c ****     uint8 tmpStatus;
ARM GAS  D:\Windows\AppData\Local\Temp\ccLjcK0k.s 			page 17


 389:Generated_Source\PSoC5/xbee_spi.c **** 
 390:Generated_Source\PSoC5/xbee_spi.c ****     #if(xbee_spi_TX_SOFTWARE_BUF_ENABLED)
 391:Generated_Source\PSoC5/xbee_spi.c ****         /* Disable TX interrupt to protect global veriables */
 392:Generated_Source\PSoC5/xbee_spi.c ****         xbee_spi_DisableTxInt();
 525              		.loc 1 392 0
 526 0006 FFF7FEFF 		bl	xbee_spi_DisableTxInt
 393:Generated_Source\PSoC5/xbee_spi.c **** 
 394:Generated_Source\PSoC5/xbee_spi.c ****         tmpStatus = xbee_spi_GET_STATUS_TX(xbee_spi_swStatusTx);
 527              		.loc 1 394 0
 528 000a 0A4B     		ldr	r3, .L30
 529 000c 1B78     		ldrb	r3, [r3]
 530 000e DAB2     		uxtb	r2, r3
 531 0010 094B     		ldr	r3, .L30+4
 532 0012 1B78     		ldrb	r3, [r3]
 533 0014 DBB2     		uxtb	r3, r3
 534 0016 03F00903 		and	r3, r3, #9
 535 001a DBB2     		uxtb	r3, r3
 536 001c 1343     		orrs	r3, r3, r2
 537 001e FB71     		strb	r3, [r7, #7]
 395:Generated_Source\PSoC5/xbee_spi.c ****         xbee_spi_swStatusTx = 0u;
 538              		.loc 1 395 0
 539 0020 054B     		ldr	r3, .L30+4
 540 0022 0022     		movs	r2, #0
 541 0024 1A70     		strb	r2, [r3]
 396:Generated_Source\PSoC5/xbee_spi.c **** 
 397:Generated_Source\PSoC5/xbee_spi.c ****         xbee_spi_EnableTxInt();
 542              		.loc 1 397 0
 543 0026 FFF7FEFF 		bl	xbee_spi_EnableTxInt
 398:Generated_Source\PSoC5/xbee_spi.c **** 
 399:Generated_Source\PSoC5/xbee_spi.c ****     #else
 400:Generated_Source\PSoC5/xbee_spi.c **** 
 401:Generated_Source\PSoC5/xbee_spi.c ****         tmpStatus = xbee_spi_TX_STATUS_REG;
 402:Generated_Source\PSoC5/xbee_spi.c **** 
 403:Generated_Source\PSoC5/xbee_spi.c ****     #endif /* (xbee_spi_TX_SOFTWARE_BUF_ENABLED) */
 404:Generated_Source\PSoC5/xbee_spi.c **** 
 405:Generated_Source\PSoC5/xbee_spi.c ****     return(tmpStatus);
 544              		.loc 1 405 0
 545 002a FB79     		ldrb	r3, [r7, #7]	@ zero_extendqisi2
 406:Generated_Source\PSoC5/xbee_spi.c **** }
 546              		.loc 1 406 0
 547 002c 1846     		mov	r0, r3
 548 002e 0837     		adds	r7, r7, #8
 549              		.cfi_def_cfa_offset 8
 550 0030 BD46     		mov	sp, r7
 551              		.cfi_def_cfa_register 13
 552              		@ sp needed
 553 0032 80BD     		pop	{r7, pc}
 554              	.L31:
 555              		.align	2
 556              	.L30:
 557 0034 66650040 		.word	1073767782
 558 0038 00000000 		.word	xbee_spi_swStatusTx
 559              		.cfi_endproc
 560              	.LFE10:
 561              		.size	xbee_spi_ReadTxStatus, .-xbee_spi_ReadTxStatus
 562              		.section	.text.xbee_spi_ReadRxStatus,"ax",%progbits
 563              		.align	2
ARM GAS  D:\Windows\AppData\Local\Temp\ccLjcK0k.s 			page 18


 564              		.global	xbee_spi_ReadRxStatus
 565              		.thumb
 566              		.thumb_func
 567              		.type	xbee_spi_ReadRxStatus, %function
 568              	xbee_spi_ReadRxStatus:
 569              	.LFB11:
 407:Generated_Source\PSoC5/xbee_spi.c **** 
 408:Generated_Source\PSoC5/xbee_spi.c **** 
 409:Generated_Source\PSoC5/xbee_spi.c **** /*******************************************************************************
 410:Generated_Source\PSoC5/xbee_spi.c **** * Function Name: xbee_spi_ReadRxStatus
 411:Generated_Source\PSoC5/xbee_spi.c **** ********************************************************************************
 412:Generated_Source\PSoC5/xbee_spi.c **** *
 413:Generated_Source\PSoC5/xbee_spi.c **** * Summary:
 414:Generated_Source\PSoC5/xbee_spi.c **** *  Read the Rx status register for the component.
 415:Generated_Source\PSoC5/xbee_spi.c **** *
 416:Generated_Source\PSoC5/xbee_spi.c **** * Parameters:
 417:Generated_Source\PSoC5/xbee_spi.c **** *  None.
 418:Generated_Source\PSoC5/xbee_spi.c **** *
 419:Generated_Source\PSoC5/xbee_spi.c **** * Return:
 420:Generated_Source\PSoC5/xbee_spi.c **** *  Contents of the Rx status register.
 421:Generated_Source\PSoC5/xbee_spi.c **** *
 422:Generated_Source\PSoC5/xbee_spi.c **** * Global variables:
 423:Generated_Source\PSoC5/xbee_spi.c **** *  xbee_spi_swStatusRx - used to store in software Rx status register,
 424:Generated_Source\PSoC5/xbee_spi.c **** *  modified every function call - resets to zero.
 425:Generated_Source\PSoC5/xbee_spi.c **** *
 426:Generated_Source\PSoC5/xbee_spi.c **** * Theory:
 427:Generated_Source\PSoC5/xbee_spi.c **** *  Allows the user and the API to read the Rx status register for error
 428:Generated_Source\PSoC5/xbee_spi.c **** *  detection and flow control.
 429:Generated_Source\PSoC5/xbee_spi.c **** *
 430:Generated_Source\PSoC5/xbee_spi.c **** * Side Effects:
 431:Generated_Source\PSoC5/xbee_spi.c **** *  Clear Rx status register of the component.
 432:Generated_Source\PSoC5/xbee_spi.c **** *
 433:Generated_Source\PSoC5/xbee_spi.c **** * Reentrant:
 434:Generated_Source\PSoC5/xbee_spi.c **** *  No.
 435:Generated_Source\PSoC5/xbee_spi.c **** *
 436:Generated_Source\PSoC5/xbee_spi.c **** *******************************************************************************/
 437:Generated_Source\PSoC5/xbee_spi.c **** uint8 xbee_spi_ReadRxStatus(void) 
 438:Generated_Source\PSoC5/xbee_spi.c **** {
 570              		.loc 1 438 0
 571              		.cfi_startproc
 572              		@ args = 0, pretend = 0, frame = 8
 573              		@ frame_needed = 1, uses_anonymous_args = 0
 574              		@ link register save eliminated.
 575 0000 80B4     		push	{r7}
 576              		.cfi_def_cfa_offset 4
 577              		.cfi_offset 7, -4
 578 0002 83B0     		sub	sp, sp, #12
 579              		.cfi_def_cfa_offset 16
 580 0004 00AF     		add	r7, sp, #0
 581              		.cfi_def_cfa_register 7
 439:Generated_Source\PSoC5/xbee_spi.c ****     uint8 tmpStatus;
 440:Generated_Source\PSoC5/xbee_spi.c **** 
 441:Generated_Source\PSoC5/xbee_spi.c ****     #if(xbee_spi_RX_SOFTWARE_BUF_ENABLED)
 442:Generated_Source\PSoC5/xbee_spi.c ****         /* Disable RX interrupt to protect global veriables */
 443:Generated_Source\PSoC5/xbee_spi.c ****         xbee_spi_DisableRxInt();
 444:Generated_Source\PSoC5/xbee_spi.c **** 
 445:Generated_Source\PSoC5/xbee_spi.c ****         tmpStatus = xbee_spi_GET_STATUS_RX(xbee_spi_swStatusRx);
ARM GAS  D:\Windows\AppData\Local\Temp\ccLjcK0k.s 			page 19


 446:Generated_Source\PSoC5/xbee_spi.c ****         xbee_spi_swStatusRx = 0u;
 447:Generated_Source\PSoC5/xbee_spi.c **** 
 448:Generated_Source\PSoC5/xbee_spi.c ****         xbee_spi_EnableRxInt();
 449:Generated_Source\PSoC5/xbee_spi.c **** 
 450:Generated_Source\PSoC5/xbee_spi.c ****     #else
 451:Generated_Source\PSoC5/xbee_spi.c **** 
 452:Generated_Source\PSoC5/xbee_spi.c ****         tmpStatus = xbee_spi_RX_STATUS_REG;
 582              		.loc 1 452 0
 583 0006 054B     		ldr	r3, .L34
 584 0008 1B78     		ldrb	r3, [r3]
 585 000a FB71     		strb	r3, [r7, #7]
 453:Generated_Source\PSoC5/xbee_spi.c **** 
 454:Generated_Source\PSoC5/xbee_spi.c ****     #endif /* (xbee_spi_RX_SOFTWARE_BUF_ENABLED) */
 455:Generated_Source\PSoC5/xbee_spi.c **** 
 456:Generated_Source\PSoC5/xbee_spi.c ****     return(tmpStatus);
 586              		.loc 1 456 0
 587 000c FB79     		ldrb	r3, [r7, #7]	@ zero_extendqisi2
 457:Generated_Source\PSoC5/xbee_spi.c **** }
 588              		.loc 1 457 0
 589 000e 1846     		mov	r0, r3
 590 0010 0C37     		adds	r7, r7, #12
 591              		.cfi_def_cfa_offset 4
 592 0012 BD46     		mov	sp, r7
 593              		.cfi_def_cfa_register 13
 594              		@ sp needed
 595 0014 5DF8047B 		ldr	r7, [sp], #4
 596              		.cfi_restore 7
 597              		.cfi_def_cfa_offset 0
 598 0018 7047     		bx	lr
 599              	.L35:
 600 001a 00BF     		.align	2
 601              	.L34:
 602 001c 64640040 		.word	1073767524
 603              		.cfi_endproc
 604              	.LFE11:
 605              		.size	xbee_spi_ReadRxStatus, .-xbee_spi_ReadRxStatus
 606              		.section	.text.xbee_spi_WriteTxData,"ax",%progbits
 607              		.align	2
 608              		.global	xbee_spi_WriteTxData
 609              		.thumb
 610              		.thumb_func
 611              		.type	xbee_spi_WriteTxData, %function
 612              	xbee_spi_WriteTxData:
 613              	.LFB12:
 458:Generated_Source\PSoC5/xbee_spi.c **** 
 459:Generated_Source\PSoC5/xbee_spi.c **** 
 460:Generated_Source\PSoC5/xbee_spi.c **** /*******************************************************************************
 461:Generated_Source\PSoC5/xbee_spi.c **** * Function Name: xbee_spi_WriteTxData
 462:Generated_Source\PSoC5/xbee_spi.c **** ********************************************************************************
 463:Generated_Source\PSoC5/xbee_spi.c **** *
 464:Generated_Source\PSoC5/xbee_spi.c **** * Summary:
 465:Generated_Source\PSoC5/xbee_spi.c **** *  Write a byte of data to be sent across the SPI.
 466:Generated_Source\PSoC5/xbee_spi.c **** *
 467:Generated_Source\PSoC5/xbee_spi.c **** * Parameters:
 468:Generated_Source\PSoC5/xbee_spi.c **** *  txDataByte: The data value to send across the SPI.
 469:Generated_Source\PSoC5/xbee_spi.c **** *
 470:Generated_Source\PSoC5/xbee_spi.c **** * Return:
ARM GAS  D:\Windows\AppData\Local\Temp\ccLjcK0k.s 			page 20


 471:Generated_Source\PSoC5/xbee_spi.c **** *  None.
 472:Generated_Source\PSoC5/xbee_spi.c **** *
 473:Generated_Source\PSoC5/xbee_spi.c **** * Global variables:
 474:Generated_Source\PSoC5/xbee_spi.c **** *  xbee_spi_txBufferWrite - used for the account of the bytes which
 475:Generated_Source\PSoC5/xbee_spi.c **** *  have been written down in the TX software buffer, modified every function
 476:Generated_Source\PSoC5/xbee_spi.c **** *  call if TX Software Buffer is used.
 477:Generated_Source\PSoC5/xbee_spi.c **** *  xbee_spi_txBufferRead - used for the account of the bytes which
 478:Generated_Source\PSoC5/xbee_spi.c **** *  have been read from the TX software buffer.
 479:Generated_Source\PSoC5/xbee_spi.c **** *  xbee_spi_txBuffer[xbee_spi_TX_BUFFER_SIZE] - used to store
 480:Generated_Source\PSoC5/xbee_spi.c **** *  data to sending, modified every function call if TX Software Buffer is used.
 481:Generated_Source\PSoC5/xbee_spi.c **** *
 482:Generated_Source\PSoC5/xbee_spi.c **** * Theory:
 483:Generated_Source\PSoC5/xbee_spi.c **** *  Allows the user to transmit any byte of data in a single transfer.
 484:Generated_Source\PSoC5/xbee_spi.c **** *
 485:Generated_Source\PSoC5/xbee_spi.c **** * Side Effects:
 486:Generated_Source\PSoC5/xbee_spi.c **** *  If this function is called again before the previous byte is finished then
 487:Generated_Source\PSoC5/xbee_spi.c **** *  the next byte will be appended to the transfer with no time between
 488:Generated_Source\PSoC5/xbee_spi.c **** *  the byte transfers. Clear Tx status register of the component.
 489:Generated_Source\PSoC5/xbee_spi.c **** *
 490:Generated_Source\PSoC5/xbee_spi.c **** * Reentrant:
 491:Generated_Source\PSoC5/xbee_spi.c **** *  No.
 492:Generated_Source\PSoC5/xbee_spi.c **** *
 493:Generated_Source\PSoC5/xbee_spi.c **** *******************************************************************************/
 494:Generated_Source\PSoC5/xbee_spi.c **** void xbee_spi_WriteTxData(uint8 txData) 
 495:Generated_Source\PSoC5/xbee_spi.c **** {
 614              		.loc 1 495 0
 615              		.cfi_startproc
 616              		@ args = 0, pretend = 0, frame = 16
 617              		@ frame_needed = 1, uses_anonymous_args = 0
 618 0000 80B5     		push	{r7, lr}
 619              		.cfi_def_cfa_offset 8
 620              		.cfi_offset 7, -8
 621              		.cfi_offset 14, -4
 622 0002 84B0     		sub	sp, sp, #16
 623              		.cfi_def_cfa_offset 24
 624 0004 00AF     		add	r7, sp, #0
 625              		.cfi_def_cfa_register 7
 626 0006 0346     		mov	r3, r0
 627 0008 FB71     		strb	r3, [r7, #7]
 628              	.L39:
 496:Generated_Source\PSoC5/xbee_spi.c ****     #if(xbee_spi_TX_SOFTWARE_BUF_ENABLED)
 497:Generated_Source\PSoC5/xbee_spi.c **** 
 498:Generated_Source\PSoC5/xbee_spi.c ****         uint8 tempStatus;
 499:Generated_Source\PSoC5/xbee_spi.c ****         uint8 tmpTxBufferRead;
 500:Generated_Source\PSoC5/xbee_spi.c **** 
 501:Generated_Source\PSoC5/xbee_spi.c ****         /* Block if TX buffer is FULL: don't overwrite */
 502:Generated_Source\PSoC5/xbee_spi.c ****         do
 503:Generated_Source\PSoC5/xbee_spi.c ****         {
 504:Generated_Source\PSoC5/xbee_spi.c ****             tmpTxBufferRead = xbee_spi_txBufferRead;
 629              		.loc 1 504 0
 630 000a 394B     		ldr	r3, .L45
 631 000c 1B78     		ldrb	r3, [r3]
 632 000e FB73     		strb	r3, [r7, #15]
 505:Generated_Source\PSoC5/xbee_spi.c ****             if(0u == tmpTxBufferRead)
 633              		.loc 1 505 0
 634 0010 FB7B     		ldrb	r3, [r7, #15]	@ zero_extendqisi2
 635 0012 002B     		cmp	r3, #0
ARM GAS  D:\Windows\AppData\Local\Temp\ccLjcK0k.s 			page 21


 636 0014 02D1     		bne	.L37
 506:Generated_Source\PSoC5/xbee_spi.c ****             {
 507:Generated_Source\PSoC5/xbee_spi.c ****                 tmpTxBufferRead = (xbee_spi_TX_BUFFER_SIZE - 1u);
 637              		.loc 1 507 0
 638 0016 3F23     		movs	r3, #63
 639 0018 FB73     		strb	r3, [r7, #15]
 640 001a 02E0     		b	.L38
 641              	.L37:
 508:Generated_Source\PSoC5/xbee_spi.c ****             }
 509:Generated_Source\PSoC5/xbee_spi.c ****             else
 510:Generated_Source\PSoC5/xbee_spi.c ****             {
 511:Generated_Source\PSoC5/xbee_spi.c ****                 tmpTxBufferRead--;
 642              		.loc 1 511 0
 643 001c FB7B     		ldrb	r3, [r7, #15]	@ zero_extendqisi2
 644 001e 013B     		subs	r3, r3, #1
 645 0020 FB73     		strb	r3, [r7, #15]
 646              	.L38:
 512:Generated_Source\PSoC5/xbee_spi.c ****             }
 513:Generated_Source\PSoC5/xbee_spi.c **** 
 514:Generated_Source\PSoC5/xbee_spi.c ****         }while(tmpTxBufferRead == xbee_spi_txBufferWrite);
 647              		.loc 1 514 0
 648 0022 344B     		ldr	r3, .L45+4
 649 0024 1B78     		ldrb	r3, [r3]
 650 0026 DBB2     		uxtb	r3, r3
 651 0028 FA7B     		ldrb	r2, [r7, #15]	@ zero_extendqisi2
 652 002a 9A42     		cmp	r2, r3
 653 002c EDD0     		beq	.L39
 515:Generated_Source\PSoC5/xbee_spi.c **** 
 516:Generated_Source\PSoC5/xbee_spi.c ****         /* Disable TX interrupt to protect global veriables */
 517:Generated_Source\PSoC5/xbee_spi.c ****         xbee_spi_DisableTxInt();
 654              		.loc 1 517 0
 655 002e FFF7FEFF 		bl	xbee_spi_DisableTxInt
 518:Generated_Source\PSoC5/xbee_spi.c **** 
 519:Generated_Source\PSoC5/xbee_spi.c ****         tempStatus = xbee_spi_GET_STATUS_TX(xbee_spi_swStatusTx);
 656              		.loc 1 519 0
 657 0032 314B     		ldr	r3, .L45+8
 658 0034 1B78     		ldrb	r3, [r3]
 659 0036 DAB2     		uxtb	r2, r3
 660 0038 304B     		ldr	r3, .L45+12
 661 003a 1B78     		ldrb	r3, [r3]
 662 003c DBB2     		uxtb	r3, r3
 663 003e 03F00903 		and	r3, r3, #9
 664 0042 DBB2     		uxtb	r3, r3
 665 0044 1343     		orrs	r3, r3, r2
 666 0046 BB73     		strb	r3, [r7, #14]
 520:Generated_Source\PSoC5/xbee_spi.c ****         xbee_spi_swStatusTx = tempStatus;
 667              		.loc 1 520 0
 668 0048 2C4A     		ldr	r2, .L45+12
 669 004a BB7B     		ldrb	r3, [r7, #14]
 670 004c 1370     		strb	r3, [r2]
 521:Generated_Source\PSoC5/xbee_spi.c **** 
 522:Generated_Source\PSoC5/xbee_spi.c **** 
 523:Generated_Source\PSoC5/xbee_spi.c ****         if((xbee_spi_txBufferRead == xbee_spi_txBufferWrite) &&
 671              		.loc 1 523 0
 672 004e 284B     		ldr	r3, .L45
 673 0050 1B78     		ldrb	r3, [r3]
 674 0052 DAB2     		uxtb	r2, r3
ARM GAS  D:\Windows\AppData\Local\Temp\ccLjcK0k.s 			page 22


 675 0054 274B     		ldr	r3, .L45+4
 676 0056 1B78     		ldrb	r3, [r3]
 677 0058 DBB2     		uxtb	r3, r3
 678 005a 9A42     		cmp	r2, r3
 679 005c 0AD1     		bne	.L40
 524:Generated_Source\PSoC5/xbee_spi.c ****            (0u != (xbee_spi_swStatusTx & xbee_spi_STS_TX_FIFO_NOT_FULL)))
 680              		.loc 1 524 0 discriminator 1
 681 005e 274B     		ldr	r3, .L45+12
 682 0060 1B78     		ldrb	r3, [r3]
 683 0062 DBB2     		uxtb	r3, r3
 684 0064 03F00403 		and	r3, r3, #4
 523:Generated_Source\PSoC5/xbee_spi.c ****            (0u != (xbee_spi_swStatusTx & xbee_spi_STS_TX_FIFO_NOT_FULL)))
 685              		.loc 1 523 0 discriminator 1
 686 0068 002B     		cmp	r3, #0
 687 006a 03D0     		beq	.L40
 525:Generated_Source\PSoC5/xbee_spi.c ****         {
 526:Generated_Source\PSoC5/xbee_spi.c ****             /* Put data element into the TX FIFO */
 527:Generated_Source\PSoC5/xbee_spi.c ****             CY_SET_REG8(xbee_spi_TXDATA_PTR, txData);
 688              		.loc 1 527 0
 689 006c 244A     		ldr	r2, .L45+16
 690 006e FB79     		ldrb	r3, [r7, #7]
 691 0070 1370     		strb	r3, [r2]
 692 0072 37E0     		b	.L41
 693              	.L40:
 528:Generated_Source\PSoC5/xbee_spi.c ****         }
 529:Generated_Source\PSoC5/xbee_spi.c ****         else
 530:Generated_Source\PSoC5/xbee_spi.c ****         {
 531:Generated_Source\PSoC5/xbee_spi.c ****             /* Add to the TX software buffer */
 532:Generated_Source\PSoC5/xbee_spi.c ****             xbee_spi_txBufferWrite++;
 694              		.loc 1 532 0
 695 0074 1F4B     		ldr	r3, .L45+4
 696 0076 1B78     		ldrb	r3, [r3]
 697 0078 DBB2     		uxtb	r3, r3
 698 007a 0133     		adds	r3, r3, #1
 699 007c DAB2     		uxtb	r2, r3
 700 007e 1D4B     		ldr	r3, .L45+4
 701 0080 1A70     		strb	r2, [r3]
 533:Generated_Source\PSoC5/xbee_spi.c ****             if(xbee_spi_txBufferWrite >= xbee_spi_TX_BUFFER_SIZE)
 702              		.loc 1 533 0
 703 0082 1C4B     		ldr	r3, .L45+4
 704 0084 1B78     		ldrb	r3, [r3]
 705 0086 DBB2     		uxtb	r3, r3
 706 0088 3F2B     		cmp	r3, #63
 707 008a 02D9     		bls	.L42
 534:Generated_Source\PSoC5/xbee_spi.c ****             {
 535:Generated_Source\PSoC5/xbee_spi.c ****                 xbee_spi_txBufferWrite = 0u;
 708              		.loc 1 535 0
 709 008c 194B     		ldr	r3, .L45+4
 710 008e 0022     		movs	r2, #0
 711 0090 1A70     		strb	r2, [r3]
 712              	.L42:
 536:Generated_Source\PSoC5/xbee_spi.c ****             }
 537:Generated_Source\PSoC5/xbee_spi.c **** 
 538:Generated_Source\PSoC5/xbee_spi.c ****             if(xbee_spi_txBufferWrite == xbee_spi_txBufferRead)
 713              		.loc 1 538 0
 714 0092 184B     		ldr	r3, .L45+4
 715 0094 1B78     		ldrb	r3, [r3]
ARM GAS  D:\Windows\AppData\Local\Temp\ccLjcK0k.s 			page 23


 716 0096 DAB2     		uxtb	r2, r3
 717 0098 154B     		ldr	r3, .L45
 718 009a 1B78     		ldrb	r3, [r3]
 719 009c DBB2     		uxtb	r3, r3
 720 009e 9A42     		cmp	r2, r3
 721 00a0 11D1     		bne	.L43
 539:Generated_Source\PSoC5/xbee_spi.c ****             {
 540:Generated_Source\PSoC5/xbee_spi.c ****                 xbee_spi_txBufferRead++;
 722              		.loc 1 540 0
 723 00a2 134B     		ldr	r3, .L45
 724 00a4 1B78     		ldrb	r3, [r3]
 725 00a6 DBB2     		uxtb	r3, r3
 726 00a8 0133     		adds	r3, r3, #1
 727 00aa DAB2     		uxtb	r2, r3
 728 00ac 104B     		ldr	r3, .L45
 729 00ae 1A70     		strb	r2, [r3]
 541:Generated_Source\PSoC5/xbee_spi.c ****                 if(xbee_spi_txBufferRead >= xbee_spi_TX_BUFFER_SIZE)
 730              		.loc 1 541 0
 731 00b0 0F4B     		ldr	r3, .L45
 732 00b2 1B78     		ldrb	r3, [r3]
 733 00b4 DBB2     		uxtb	r3, r3
 734 00b6 3F2B     		cmp	r3, #63
 735 00b8 02D9     		bls	.L44
 542:Generated_Source\PSoC5/xbee_spi.c ****                 {
 543:Generated_Source\PSoC5/xbee_spi.c ****                     xbee_spi_txBufferRead = 0u;
 736              		.loc 1 543 0
 737 00ba 0D4B     		ldr	r3, .L45
 738 00bc 0022     		movs	r2, #0
 739 00be 1A70     		strb	r2, [r3]
 740              	.L44:
 544:Generated_Source\PSoC5/xbee_spi.c ****                 }
 545:Generated_Source\PSoC5/xbee_spi.c ****                 xbee_spi_txBufferFull = 1u;
 741              		.loc 1 545 0
 742 00c0 104B     		ldr	r3, .L45+20
 743 00c2 0122     		movs	r2, #1
 744 00c4 1A70     		strb	r2, [r3]
 745              	.L43:
 546:Generated_Source\PSoC5/xbee_spi.c ****             }
 547:Generated_Source\PSoC5/xbee_spi.c **** 
 548:Generated_Source\PSoC5/xbee_spi.c ****             xbee_spi_txBuffer[xbee_spi_txBufferWrite] = txData;
 746              		.loc 1 548 0
 747 00c6 0B4B     		ldr	r3, .L45+4
 748 00c8 1B78     		ldrb	r3, [r3]
 749 00ca DBB2     		uxtb	r3, r3
 750 00cc 1946     		mov	r1, r3
 751 00ce 0E4A     		ldr	r2, .L45+24
 752 00d0 FB79     		ldrb	r3, [r7, #7]
 753 00d2 5354     		strb	r3, [r2, r1]
 549:Generated_Source\PSoC5/xbee_spi.c **** 
 550:Generated_Source\PSoC5/xbee_spi.c ****             xbee_spi_TX_STATUS_MASK_REG |= xbee_spi_STS_TX_FIFO_NOT_FULL;
 754              		.loc 1 550 0
 755 00d4 0D4A     		ldr	r2, .L45+28
 756 00d6 0D4B     		ldr	r3, .L45+28
 757 00d8 1B78     		ldrb	r3, [r3]
 758 00da DBB2     		uxtb	r3, r3
 759 00dc 43F00403 		orr	r3, r3, #4
 760 00e0 DBB2     		uxtb	r3, r3
ARM GAS  D:\Windows\AppData\Local\Temp\ccLjcK0k.s 			page 24


 761 00e2 1370     		strb	r3, [r2]
 762              	.L41:
 551:Generated_Source\PSoC5/xbee_spi.c ****         }
 552:Generated_Source\PSoC5/xbee_spi.c **** 
 553:Generated_Source\PSoC5/xbee_spi.c ****         xbee_spi_EnableTxInt();
 763              		.loc 1 553 0
 764 00e4 FFF7FEFF 		bl	xbee_spi_EnableTxInt
 554:Generated_Source\PSoC5/xbee_spi.c **** 
 555:Generated_Source\PSoC5/xbee_spi.c ****     #else
 556:Generated_Source\PSoC5/xbee_spi.c ****         /* Wait until TX FIFO has a place */
 557:Generated_Source\PSoC5/xbee_spi.c ****         while(0u == (xbee_spi_TX_STATUS_REG & xbee_spi_STS_TX_FIFO_NOT_FULL))
 558:Generated_Source\PSoC5/xbee_spi.c ****         {
 559:Generated_Source\PSoC5/xbee_spi.c ****         }
 560:Generated_Source\PSoC5/xbee_spi.c **** 
 561:Generated_Source\PSoC5/xbee_spi.c ****         /* Put data element into the TX FIFO */
 562:Generated_Source\PSoC5/xbee_spi.c ****         CY_SET_REG8(xbee_spi_TXDATA_PTR, txData);
 563:Generated_Source\PSoC5/xbee_spi.c **** 
 564:Generated_Source\PSoC5/xbee_spi.c ****     #endif /* (xbee_spi_TX_SOFTWARE_BUF_ENABLED) */
 565:Generated_Source\PSoC5/xbee_spi.c **** }
 765              		.loc 1 565 0
 766 00e8 1037     		adds	r7, r7, #16
 767              		.cfi_def_cfa_offset 8
 768 00ea BD46     		mov	sp, r7
 769              		.cfi_def_cfa_register 13
 770              		@ sp needed
 771 00ec 80BD     		pop	{r7, pc}
 772              	.L46:
 773 00ee 00BF     		.align	2
 774              	.L45:
 775 00f0 00000000 		.word	xbee_spi_txBufferRead
 776 00f4 00000000 		.word	xbee_spi_txBufferWrite
 777 00f8 66650040 		.word	1073767782
 778 00fc 00000000 		.word	xbee_spi_swStatusTx
 779 0100 46650040 		.word	1073767750
 780 0104 00000000 		.word	xbee_spi_txBufferFull
 781 0108 00000000 		.word	xbee_spi_txBuffer
 782 010c 86650040 		.word	1073767814
 783              		.cfi_endproc
 784              	.LFE12:
 785              		.size	xbee_spi_WriteTxData, .-xbee_spi_WriteTxData
 786              		.section	.text.xbee_spi_ReadRxData,"ax",%progbits
 787              		.align	2
 788              		.global	xbee_spi_ReadRxData
 789              		.thumb
 790              		.thumb_func
 791              		.type	xbee_spi_ReadRxData, %function
 792              	xbee_spi_ReadRxData:
 793              	.LFB13:
 566:Generated_Source\PSoC5/xbee_spi.c **** 
 567:Generated_Source\PSoC5/xbee_spi.c **** 
 568:Generated_Source\PSoC5/xbee_spi.c **** /*******************************************************************************
 569:Generated_Source\PSoC5/xbee_spi.c **** * Function Name: xbee_spi_ReadRxData
 570:Generated_Source\PSoC5/xbee_spi.c **** ********************************************************************************
 571:Generated_Source\PSoC5/xbee_spi.c **** *
 572:Generated_Source\PSoC5/xbee_spi.c **** * Summary:
 573:Generated_Source\PSoC5/xbee_spi.c **** *  Read the next byte of data received across the SPI.
 574:Generated_Source\PSoC5/xbee_spi.c **** *
ARM GAS  D:\Windows\AppData\Local\Temp\ccLjcK0k.s 			page 25


 575:Generated_Source\PSoC5/xbee_spi.c **** * Parameters:
 576:Generated_Source\PSoC5/xbee_spi.c **** *  None.
 577:Generated_Source\PSoC5/xbee_spi.c **** *
 578:Generated_Source\PSoC5/xbee_spi.c **** * Return:
 579:Generated_Source\PSoC5/xbee_spi.c **** *  The next byte of data read from the FIFO.
 580:Generated_Source\PSoC5/xbee_spi.c **** *
 581:Generated_Source\PSoC5/xbee_spi.c **** * Global variables:
 582:Generated_Source\PSoC5/xbee_spi.c **** *  xbee_spi_rxBufferWrite - used for the account of the bytes which
 583:Generated_Source\PSoC5/xbee_spi.c **** *  have been written down in the RX software buffer.
 584:Generated_Source\PSoC5/xbee_spi.c **** *  xbee_spi_rxBufferRead - used for the account of the bytes which
 585:Generated_Source\PSoC5/xbee_spi.c **** *  have been read from the RX software buffer, modified every function
 586:Generated_Source\PSoC5/xbee_spi.c **** *  call if RX Software Buffer is used.
 587:Generated_Source\PSoC5/xbee_spi.c **** *  xbee_spi_rxBuffer[xbee_spi_RX_BUFFER_SIZE] - used to store
 588:Generated_Source\PSoC5/xbee_spi.c **** *  received data.
 589:Generated_Source\PSoC5/xbee_spi.c **** *
 590:Generated_Source\PSoC5/xbee_spi.c **** * Theory:
 591:Generated_Source\PSoC5/xbee_spi.c **** *  Allows the user to read a byte of data received.
 592:Generated_Source\PSoC5/xbee_spi.c **** *
 593:Generated_Source\PSoC5/xbee_spi.c **** * Side Effects:
 594:Generated_Source\PSoC5/xbee_spi.c **** *  Will return invalid data if the FIFO is empty. The user should Call
 595:Generated_Source\PSoC5/xbee_spi.c **** *  GetRxBufferSize() and if it returns a non-zero value then it is safe to call
 596:Generated_Source\PSoC5/xbee_spi.c **** *  ReadByte() function.
 597:Generated_Source\PSoC5/xbee_spi.c **** *
 598:Generated_Source\PSoC5/xbee_spi.c **** * Reentrant:
 599:Generated_Source\PSoC5/xbee_spi.c **** *  No.
 600:Generated_Source\PSoC5/xbee_spi.c **** *
 601:Generated_Source\PSoC5/xbee_spi.c **** *******************************************************************************/
 602:Generated_Source\PSoC5/xbee_spi.c **** uint8 xbee_spi_ReadRxData(void) 
 603:Generated_Source\PSoC5/xbee_spi.c **** {
 794              		.loc 1 603 0
 795              		.cfi_startproc
 796              		@ args = 0, pretend = 0, frame = 8
 797              		@ frame_needed = 1, uses_anonymous_args = 0
 798              		@ link register save eliminated.
 799 0000 80B4     		push	{r7}
 800              		.cfi_def_cfa_offset 4
 801              		.cfi_offset 7, -4
 802 0002 83B0     		sub	sp, sp, #12
 803              		.cfi_def_cfa_offset 16
 804 0004 00AF     		add	r7, sp, #0
 805              		.cfi_def_cfa_register 7
 604:Generated_Source\PSoC5/xbee_spi.c ****     uint8 rxData;
 605:Generated_Source\PSoC5/xbee_spi.c **** 
 606:Generated_Source\PSoC5/xbee_spi.c ****     #if(xbee_spi_RX_SOFTWARE_BUF_ENABLED)
 607:Generated_Source\PSoC5/xbee_spi.c **** 
 608:Generated_Source\PSoC5/xbee_spi.c ****         /* Disable RX interrupt to protect global veriables */
 609:Generated_Source\PSoC5/xbee_spi.c ****         xbee_spi_DisableRxInt();
 610:Generated_Source\PSoC5/xbee_spi.c **** 
 611:Generated_Source\PSoC5/xbee_spi.c ****         if(xbee_spi_rxBufferRead != xbee_spi_rxBufferWrite)
 612:Generated_Source\PSoC5/xbee_spi.c ****         {
 613:Generated_Source\PSoC5/xbee_spi.c ****             if(0u == xbee_spi_rxBufferFull)
 614:Generated_Source\PSoC5/xbee_spi.c ****             {
 615:Generated_Source\PSoC5/xbee_spi.c ****                 xbee_spi_rxBufferRead++;
 616:Generated_Source\PSoC5/xbee_spi.c ****                 if(xbee_spi_rxBufferRead >= xbee_spi_RX_BUFFER_SIZE)
 617:Generated_Source\PSoC5/xbee_spi.c ****                 {
 618:Generated_Source\PSoC5/xbee_spi.c ****                     xbee_spi_rxBufferRead = 0u;
 619:Generated_Source\PSoC5/xbee_spi.c ****                 }
ARM GAS  D:\Windows\AppData\Local\Temp\ccLjcK0k.s 			page 26


 620:Generated_Source\PSoC5/xbee_spi.c ****             }
 621:Generated_Source\PSoC5/xbee_spi.c ****             else
 622:Generated_Source\PSoC5/xbee_spi.c ****             {
 623:Generated_Source\PSoC5/xbee_spi.c ****                 xbee_spi_rxBufferFull = 0u;
 624:Generated_Source\PSoC5/xbee_spi.c ****             }
 625:Generated_Source\PSoC5/xbee_spi.c ****         }
 626:Generated_Source\PSoC5/xbee_spi.c **** 
 627:Generated_Source\PSoC5/xbee_spi.c ****         rxData = xbee_spi_rxBuffer[xbee_spi_rxBufferRead];
 628:Generated_Source\PSoC5/xbee_spi.c **** 
 629:Generated_Source\PSoC5/xbee_spi.c ****         xbee_spi_EnableRxInt();
 630:Generated_Source\PSoC5/xbee_spi.c **** 
 631:Generated_Source\PSoC5/xbee_spi.c ****     #else
 632:Generated_Source\PSoC5/xbee_spi.c **** 
 633:Generated_Source\PSoC5/xbee_spi.c ****         rxData = CY_GET_REG8(xbee_spi_RXDATA_PTR);
 806              		.loc 1 633 0
 807 0006 054B     		ldr	r3, .L49
 808 0008 1B78     		ldrb	r3, [r3]
 809 000a FB71     		strb	r3, [r7, #7]
 634:Generated_Source\PSoC5/xbee_spi.c **** 
 635:Generated_Source\PSoC5/xbee_spi.c ****     #endif /* (xbee_spi_RX_SOFTWARE_BUF_ENABLED) */
 636:Generated_Source\PSoC5/xbee_spi.c **** 
 637:Generated_Source\PSoC5/xbee_spi.c ****     return(rxData);
 810              		.loc 1 637 0
 811 000c FB79     		ldrb	r3, [r7, #7]	@ zero_extendqisi2
 638:Generated_Source\PSoC5/xbee_spi.c **** }
 812              		.loc 1 638 0
 813 000e 1846     		mov	r0, r3
 814 0010 0C37     		adds	r7, r7, #12
 815              		.cfi_def_cfa_offset 4
 816 0012 BD46     		mov	sp, r7
 817              		.cfi_def_cfa_register 13
 818              		@ sp needed
 819 0014 5DF8047B 		ldr	r7, [sp], #4
 820              		.cfi_restore 7
 821              		.cfi_def_cfa_offset 0
 822 0018 7047     		bx	lr
 823              	.L50:
 824 001a 00BF     		.align	2
 825              	.L49:
 826 001c 56650040 		.word	1073767766
 827              		.cfi_endproc
 828              	.LFE13:
 829              		.size	xbee_spi_ReadRxData, .-xbee_spi_ReadRxData
 830              		.section	.text.xbee_spi_GetRxBufferSize,"ax",%progbits
 831              		.align	2
 832              		.global	xbee_spi_GetRxBufferSize
 833              		.thumb
 834              		.thumb_func
 835              		.type	xbee_spi_GetRxBufferSize, %function
 836              	xbee_spi_GetRxBufferSize:
 837              	.LFB14:
 639:Generated_Source\PSoC5/xbee_spi.c **** 
 640:Generated_Source\PSoC5/xbee_spi.c **** 
 641:Generated_Source\PSoC5/xbee_spi.c **** /*******************************************************************************
 642:Generated_Source\PSoC5/xbee_spi.c **** * Function Name: xbee_spi_GetRxBufferSize
 643:Generated_Source\PSoC5/xbee_spi.c **** ********************************************************************************
 644:Generated_Source\PSoC5/xbee_spi.c **** *
ARM GAS  D:\Windows\AppData\Local\Temp\ccLjcK0k.s 			page 27


 645:Generated_Source\PSoC5/xbee_spi.c **** * Summary:
 646:Generated_Source\PSoC5/xbee_spi.c **** *  Returns the number of bytes/words of data currently held in the RX buffer.
 647:Generated_Source\PSoC5/xbee_spi.c **** *  If RX Software Buffer not used then function return 0 if FIFO empty or 1 if
 648:Generated_Source\PSoC5/xbee_spi.c **** *  FIFO not empty. In another case function return size of RX Software Buffer.
 649:Generated_Source\PSoC5/xbee_spi.c **** *
 650:Generated_Source\PSoC5/xbee_spi.c **** * Parameters:
 651:Generated_Source\PSoC5/xbee_spi.c **** *  None.
 652:Generated_Source\PSoC5/xbee_spi.c **** *
 653:Generated_Source\PSoC5/xbee_spi.c **** * Return:
 654:Generated_Source\PSoC5/xbee_spi.c **** *  Integer count of the number of bytes/words in the RX buffer.
 655:Generated_Source\PSoC5/xbee_spi.c **** *
 656:Generated_Source\PSoC5/xbee_spi.c **** * Global variables:
 657:Generated_Source\PSoC5/xbee_spi.c **** *  xbee_spi_rxBufferWrite - used for the account of the bytes which
 658:Generated_Source\PSoC5/xbee_spi.c **** *  have been written down in the RX software buffer.
 659:Generated_Source\PSoC5/xbee_spi.c **** *  xbee_spi_rxBufferRead - used for the account of the bytes which
 660:Generated_Source\PSoC5/xbee_spi.c **** *  have been read from the RX software buffer.
 661:Generated_Source\PSoC5/xbee_spi.c **** *
 662:Generated_Source\PSoC5/xbee_spi.c **** * Side Effects:
 663:Generated_Source\PSoC5/xbee_spi.c **** *  Clear status register of the component.
 664:Generated_Source\PSoC5/xbee_spi.c **** *
 665:Generated_Source\PSoC5/xbee_spi.c **** *******************************************************************************/
 666:Generated_Source\PSoC5/xbee_spi.c **** uint8 xbee_spi_GetRxBufferSize(void) 
 667:Generated_Source\PSoC5/xbee_spi.c **** {
 838              		.loc 1 667 0
 839              		.cfi_startproc
 840              		@ args = 0, pretend = 0, frame = 8
 841              		@ frame_needed = 1, uses_anonymous_args = 0
 842              		@ link register save eliminated.
 843 0000 80B4     		push	{r7}
 844              		.cfi_def_cfa_offset 4
 845              		.cfi_offset 7, -4
 846 0002 83B0     		sub	sp, sp, #12
 847              		.cfi_def_cfa_offset 16
 848 0004 00AF     		add	r7, sp, #0
 849              		.cfi_def_cfa_register 7
 668:Generated_Source\PSoC5/xbee_spi.c ****     uint8 size;
 669:Generated_Source\PSoC5/xbee_spi.c **** 
 670:Generated_Source\PSoC5/xbee_spi.c ****     #if(xbee_spi_RX_SOFTWARE_BUF_ENABLED)
 671:Generated_Source\PSoC5/xbee_spi.c **** 
 672:Generated_Source\PSoC5/xbee_spi.c ****         /* Disable RX interrupt to protect global veriables */
 673:Generated_Source\PSoC5/xbee_spi.c ****         xbee_spi_DisableRxInt();
 674:Generated_Source\PSoC5/xbee_spi.c **** 
 675:Generated_Source\PSoC5/xbee_spi.c ****         if(xbee_spi_rxBufferRead == xbee_spi_rxBufferWrite)
 676:Generated_Source\PSoC5/xbee_spi.c ****         {
 677:Generated_Source\PSoC5/xbee_spi.c ****             size = 0u;
 678:Generated_Source\PSoC5/xbee_spi.c ****         }
 679:Generated_Source\PSoC5/xbee_spi.c ****         else if(xbee_spi_rxBufferRead < xbee_spi_rxBufferWrite)
 680:Generated_Source\PSoC5/xbee_spi.c ****         {
 681:Generated_Source\PSoC5/xbee_spi.c ****             size = (xbee_spi_rxBufferWrite - xbee_spi_rxBufferRead);
 682:Generated_Source\PSoC5/xbee_spi.c ****         }
 683:Generated_Source\PSoC5/xbee_spi.c ****         else
 684:Generated_Source\PSoC5/xbee_spi.c ****         {
 685:Generated_Source\PSoC5/xbee_spi.c ****             size = (xbee_spi_RX_BUFFER_SIZE - xbee_spi_rxBufferRead) + xbee_spi_rxBufferWrite;
 686:Generated_Source\PSoC5/xbee_spi.c ****         }
 687:Generated_Source\PSoC5/xbee_spi.c **** 
 688:Generated_Source\PSoC5/xbee_spi.c ****         xbee_spi_EnableRxInt();
 689:Generated_Source\PSoC5/xbee_spi.c **** 
ARM GAS  D:\Windows\AppData\Local\Temp\ccLjcK0k.s 			page 28


 690:Generated_Source\PSoC5/xbee_spi.c ****     #else
 691:Generated_Source\PSoC5/xbee_spi.c **** 
 692:Generated_Source\PSoC5/xbee_spi.c ****         /* We can only know if there is data in the RX FIFO */
 693:Generated_Source\PSoC5/xbee_spi.c ****         size = (0u != (xbee_spi_RX_STATUS_REG & xbee_spi_STS_RX_FIFO_NOT_EMPTY)) ? 1u : 0u;
 850              		.loc 1 693 0
 851 0006 094B     		ldr	r3, .L55
 852 0008 1B78     		ldrb	r3, [r3]
 853 000a DBB2     		uxtb	r3, r3
 854 000c 03F02003 		and	r3, r3, #32
 855 0010 002B     		cmp	r3, #0
 856 0012 01D0     		beq	.L52
 857              		.loc 1 693 0 is_stmt 0 discriminator 1
 858 0014 0123     		movs	r3, #1
 859 0016 00E0     		b	.L53
 860              	.L52:
 861              		.loc 1 693 0 discriminator 2
 862 0018 0023     		movs	r3, #0
 863              	.L53:
 864              		.loc 1 693 0 discriminator 4
 865 001a FB71     		strb	r3, [r7, #7]
 694:Generated_Source\PSoC5/xbee_spi.c **** 
 695:Generated_Source\PSoC5/xbee_spi.c ****     #endif /* (xbee_spi_TX_SOFTWARE_BUF_ENABLED) */
 696:Generated_Source\PSoC5/xbee_spi.c **** 
 697:Generated_Source\PSoC5/xbee_spi.c ****     return(size);
 866              		.loc 1 697 0 is_stmt 1 discriminator 4
 867 001c FB79     		ldrb	r3, [r7, #7]	@ zero_extendqisi2
 698:Generated_Source\PSoC5/xbee_spi.c **** }
 868              		.loc 1 698 0 discriminator 4
 869 001e 1846     		mov	r0, r3
 870 0020 0C37     		adds	r7, r7, #12
 871              		.cfi_def_cfa_offset 4
 872 0022 BD46     		mov	sp, r7
 873              		.cfi_def_cfa_register 13
 874              		@ sp needed
 875 0024 5DF8047B 		ldr	r7, [sp], #4
 876              		.cfi_restore 7
 877              		.cfi_def_cfa_offset 0
 878 0028 7047     		bx	lr
 879              	.L56:
 880 002a 00BF     		.align	2
 881              	.L55:
 882 002c 64640040 		.word	1073767524
 883              		.cfi_endproc
 884              	.LFE14:
 885              		.size	xbee_spi_GetRxBufferSize, .-xbee_spi_GetRxBufferSize
 886              		.section	.text.xbee_spi_GetTxBufferSize,"ax",%progbits
 887              		.align	2
 888              		.global	xbee_spi_GetTxBufferSize
 889              		.thumb
 890              		.thumb_func
 891              		.type	xbee_spi_GetTxBufferSize, %function
 892              	xbee_spi_GetTxBufferSize:
 893              	.LFB15:
 699:Generated_Source\PSoC5/xbee_spi.c **** 
 700:Generated_Source\PSoC5/xbee_spi.c **** 
 701:Generated_Source\PSoC5/xbee_spi.c **** /*******************************************************************************
 702:Generated_Source\PSoC5/xbee_spi.c **** * Function Name: xbee_spi_GetTxBufferSize
ARM GAS  D:\Windows\AppData\Local\Temp\ccLjcK0k.s 			page 29


 703:Generated_Source\PSoC5/xbee_spi.c **** ********************************************************************************
 704:Generated_Source\PSoC5/xbee_spi.c **** *
 705:Generated_Source\PSoC5/xbee_spi.c **** * Summary:
 706:Generated_Source\PSoC5/xbee_spi.c **** *  Returns the number of bytes/words of data currently held in the TX buffer.
 707:Generated_Source\PSoC5/xbee_spi.c **** *  If TX Software Buffer not used then function return 0 - if FIFO empty, 1 - if
 708:Generated_Source\PSoC5/xbee_spi.c **** *  FIFO not full, 4 - if FIFO full. In another case function return size of TX
 709:Generated_Source\PSoC5/xbee_spi.c **** *  Software Buffer.
 710:Generated_Source\PSoC5/xbee_spi.c **** *
 711:Generated_Source\PSoC5/xbee_spi.c **** * Parameters:
 712:Generated_Source\PSoC5/xbee_spi.c **** *  None.
 713:Generated_Source\PSoC5/xbee_spi.c **** *
 714:Generated_Source\PSoC5/xbee_spi.c **** * Return:
 715:Generated_Source\PSoC5/xbee_spi.c **** *  Integer count of the number of bytes/words in the TX buffer.
 716:Generated_Source\PSoC5/xbee_spi.c **** *
 717:Generated_Source\PSoC5/xbee_spi.c **** * Global variables:
 718:Generated_Source\PSoC5/xbee_spi.c **** *  xbee_spi_txBufferWrite - used for the account of the bytes which
 719:Generated_Source\PSoC5/xbee_spi.c **** *  have been written down in the TX software buffer.
 720:Generated_Source\PSoC5/xbee_spi.c **** *  xbee_spi_txBufferRead - used for the account of the bytes which
 721:Generated_Source\PSoC5/xbee_spi.c **** *  have been read from the TX software buffer.
 722:Generated_Source\PSoC5/xbee_spi.c **** *
 723:Generated_Source\PSoC5/xbee_spi.c **** * Side Effects:
 724:Generated_Source\PSoC5/xbee_spi.c **** *  Clear status register of the component.
 725:Generated_Source\PSoC5/xbee_spi.c **** *
 726:Generated_Source\PSoC5/xbee_spi.c **** *******************************************************************************/
 727:Generated_Source\PSoC5/xbee_spi.c **** uint8  xbee_spi_GetTxBufferSize(void) 
 728:Generated_Source\PSoC5/xbee_spi.c **** {
 894              		.loc 1 728 0
 895              		.cfi_startproc
 896              		@ args = 0, pretend = 0, frame = 8
 897              		@ frame_needed = 1, uses_anonymous_args = 0
 898 0000 80B5     		push	{r7, lr}
 899              		.cfi_def_cfa_offset 8
 900              		.cfi_offset 7, -8
 901              		.cfi_offset 14, -4
 902 0002 82B0     		sub	sp, sp, #8
 903              		.cfi_def_cfa_offset 16
 904 0004 00AF     		add	r7, sp, #0
 905              		.cfi_def_cfa_register 7
 729:Generated_Source\PSoC5/xbee_spi.c ****     uint8 size;
 730:Generated_Source\PSoC5/xbee_spi.c **** 
 731:Generated_Source\PSoC5/xbee_spi.c ****     #if(xbee_spi_TX_SOFTWARE_BUF_ENABLED)
 732:Generated_Source\PSoC5/xbee_spi.c ****         /* Disable TX interrupt to protect global veriables */
 733:Generated_Source\PSoC5/xbee_spi.c ****         xbee_spi_DisableTxInt();
 906              		.loc 1 733 0
 907 0006 FFF7FEFF 		bl	xbee_spi_DisableTxInt
 734:Generated_Source\PSoC5/xbee_spi.c **** 
 735:Generated_Source\PSoC5/xbee_spi.c ****         if(xbee_spi_txBufferRead == xbee_spi_txBufferWrite)
 908              		.loc 1 735 0
 909 000a 164B     		ldr	r3, .L62
 910 000c 1B78     		ldrb	r3, [r3]
 911 000e DAB2     		uxtb	r2, r3
 912 0010 154B     		ldr	r3, .L62+4
 913 0012 1B78     		ldrb	r3, [r3]
 914 0014 DBB2     		uxtb	r3, r3
 915 0016 9A42     		cmp	r2, r3
 916 0018 02D1     		bne	.L58
 736:Generated_Source\PSoC5/xbee_spi.c ****         {
ARM GAS  D:\Windows\AppData\Local\Temp\ccLjcK0k.s 			page 30


 737:Generated_Source\PSoC5/xbee_spi.c ****             size = 0u;
 917              		.loc 1 737 0
 918 001a 0023     		movs	r3, #0
 919 001c FB71     		strb	r3, [r7, #7]
 920 001e 1AE0     		b	.L59
 921              	.L58:
 738:Generated_Source\PSoC5/xbee_spi.c ****         }
 739:Generated_Source\PSoC5/xbee_spi.c ****         else if(xbee_spi_txBufferRead < xbee_spi_txBufferWrite)
 922              		.loc 1 739 0
 923 0020 104B     		ldr	r3, .L62
 924 0022 1B78     		ldrb	r3, [r3]
 925 0024 DAB2     		uxtb	r2, r3
 926 0026 104B     		ldr	r3, .L62+4
 927 0028 1B78     		ldrb	r3, [r3]
 928 002a DBB2     		uxtb	r3, r3
 929 002c 9A42     		cmp	r2, r3
 930 002e 08D2     		bcs	.L60
 740:Generated_Source\PSoC5/xbee_spi.c ****         {
 741:Generated_Source\PSoC5/xbee_spi.c ****             size = (xbee_spi_txBufferWrite - xbee_spi_txBufferRead);
 931              		.loc 1 741 0
 932 0030 0D4B     		ldr	r3, .L62+4
 933 0032 1B78     		ldrb	r3, [r3]
 934 0034 DAB2     		uxtb	r2, r3
 935 0036 0B4B     		ldr	r3, .L62
 936 0038 1B78     		ldrb	r3, [r3]
 937 003a DBB2     		uxtb	r3, r3
 938 003c D31A     		subs	r3, r2, r3
 939 003e FB71     		strb	r3, [r7, #7]
 940 0040 09E0     		b	.L59
 941              	.L60:
 742:Generated_Source\PSoC5/xbee_spi.c ****         }
 743:Generated_Source\PSoC5/xbee_spi.c ****         else
 744:Generated_Source\PSoC5/xbee_spi.c ****         {
 745:Generated_Source\PSoC5/xbee_spi.c ****             size = (xbee_spi_TX_BUFFER_SIZE - xbee_spi_txBufferRead) + xbee_spi_txBufferWrite;
 942              		.loc 1 745 0
 943 0042 094B     		ldr	r3, .L62+4
 944 0044 1B78     		ldrb	r3, [r3]
 945 0046 DAB2     		uxtb	r2, r3
 946 0048 064B     		ldr	r3, .L62
 947 004a 1B78     		ldrb	r3, [r3]
 948 004c DBB2     		uxtb	r3, r3
 949 004e D31A     		subs	r3, r2, r3
 950 0050 DBB2     		uxtb	r3, r3
 951 0052 4033     		adds	r3, r3, #64
 952 0054 FB71     		strb	r3, [r7, #7]
 953              	.L59:
 746:Generated_Source\PSoC5/xbee_spi.c ****         }
 747:Generated_Source\PSoC5/xbee_spi.c **** 
 748:Generated_Source\PSoC5/xbee_spi.c ****         xbee_spi_EnableTxInt();
 954              		.loc 1 748 0
 955 0056 FFF7FEFF 		bl	xbee_spi_EnableTxInt
 749:Generated_Source\PSoC5/xbee_spi.c **** 
 750:Generated_Source\PSoC5/xbee_spi.c ****     #else
 751:Generated_Source\PSoC5/xbee_spi.c **** 
 752:Generated_Source\PSoC5/xbee_spi.c ****         size = xbee_spi_TX_STATUS_REG;
 753:Generated_Source\PSoC5/xbee_spi.c **** 
 754:Generated_Source\PSoC5/xbee_spi.c ****         if(0u != (size & xbee_spi_STS_TX_FIFO_EMPTY))
ARM GAS  D:\Windows\AppData\Local\Temp\ccLjcK0k.s 			page 31


 755:Generated_Source\PSoC5/xbee_spi.c ****         {
 756:Generated_Source\PSoC5/xbee_spi.c ****             size = 0u;
 757:Generated_Source\PSoC5/xbee_spi.c ****         }
 758:Generated_Source\PSoC5/xbee_spi.c ****         else if(0u != (size & xbee_spi_STS_TX_FIFO_NOT_FULL))
 759:Generated_Source\PSoC5/xbee_spi.c ****         {
 760:Generated_Source\PSoC5/xbee_spi.c ****             size = 1u;
 761:Generated_Source\PSoC5/xbee_spi.c ****         }
 762:Generated_Source\PSoC5/xbee_spi.c ****         else
 763:Generated_Source\PSoC5/xbee_spi.c ****         {
 764:Generated_Source\PSoC5/xbee_spi.c ****             size = xbee_spi_FIFO_SIZE;
 765:Generated_Source\PSoC5/xbee_spi.c ****         }
 766:Generated_Source\PSoC5/xbee_spi.c **** 
 767:Generated_Source\PSoC5/xbee_spi.c ****     #endif /* (xbee_spi_TX_SOFTWARE_BUF_ENABLED) */
 768:Generated_Source\PSoC5/xbee_spi.c **** 
 769:Generated_Source\PSoC5/xbee_spi.c ****     return(size);
 956              		.loc 1 769 0
 957 005a FB79     		ldrb	r3, [r7, #7]	@ zero_extendqisi2
 770:Generated_Source\PSoC5/xbee_spi.c **** }
 958              		.loc 1 770 0
 959 005c 1846     		mov	r0, r3
 960 005e 0837     		adds	r7, r7, #8
 961              		.cfi_def_cfa_offset 8
 962 0060 BD46     		mov	sp, r7
 963              		.cfi_def_cfa_register 13
 964              		@ sp needed
 965 0062 80BD     		pop	{r7, pc}
 966              	.L63:
 967              		.align	2
 968              	.L62:
 969 0064 00000000 		.word	xbee_spi_txBufferRead
 970 0068 00000000 		.word	xbee_spi_txBufferWrite
 971              		.cfi_endproc
 972              	.LFE15:
 973              		.size	xbee_spi_GetTxBufferSize, .-xbee_spi_GetTxBufferSize
 974              		.section	.text.xbee_spi_ClearRxBuffer,"ax",%progbits
 975              		.align	2
 976              		.global	xbee_spi_ClearRxBuffer
 977              		.thumb
 978              		.thumb_func
 979              		.type	xbee_spi_ClearRxBuffer, %function
 980              	xbee_spi_ClearRxBuffer:
 981              	.LFB16:
 771:Generated_Source\PSoC5/xbee_spi.c **** 
 772:Generated_Source\PSoC5/xbee_spi.c **** 
 773:Generated_Source\PSoC5/xbee_spi.c **** /*******************************************************************************
 774:Generated_Source\PSoC5/xbee_spi.c **** * Function Name: xbee_spi_ClearRxBuffer
 775:Generated_Source\PSoC5/xbee_spi.c **** ********************************************************************************
 776:Generated_Source\PSoC5/xbee_spi.c **** *
 777:Generated_Source\PSoC5/xbee_spi.c **** * Summary:
 778:Generated_Source\PSoC5/xbee_spi.c **** *  Clear the RX RAM buffer by setting the read and write pointers both to zero.
 779:Generated_Source\PSoC5/xbee_spi.c **** *
 780:Generated_Source\PSoC5/xbee_spi.c **** * Parameters:
 781:Generated_Source\PSoC5/xbee_spi.c **** *  None.
 782:Generated_Source\PSoC5/xbee_spi.c **** *
 783:Generated_Source\PSoC5/xbee_spi.c **** * Return:
 784:Generated_Source\PSoC5/xbee_spi.c **** *  None.
 785:Generated_Source\PSoC5/xbee_spi.c **** *
ARM GAS  D:\Windows\AppData\Local\Temp\ccLjcK0k.s 			page 32


 786:Generated_Source\PSoC5/xbee_spi.c **** * Global variables:
 787:Generated_Source\PSoC5/xbee_spi.c **** *  xbee_spi_rxBufferWrite - used for the account of the bytes which
 788:Generated_Source\PSoC5/xbee_spi.c **** *  have been written down in the RX software buffer, modified every function
 789:Generated_Source\PSoC5/xbee_spi.c **** *  call - resets to zero.
 790:Generated_Source\PSoC5/xbee_spi.c **** *  xbee_spi_rxBufferRead - used for the account of the bytes which
 791:Generated_Source\PSoC5/xbee_spi.c **** *  have been read from the RX software buffer, modified every function call -
 792:Generated_Source\PSoC5/xbee_spi.c **** *  resets to zero.
 793:Generated_Source\PSoC5/xbee_spi.c **** *
 794:Generated_Source\PSoC5/xbee_spi.c **** * Theory:
 795:Generated_Source\PSoC5/xbee_spi.c **** *  Setting the pointers to zero makes the system believe there is no data to
 796:Generated_Source\PSoC5/xbee_spi.c **** *  read and writing will resume at address 0 overwriting any data that may have
 797:Generated_Source\PSoC5/xbee_spi.c **** *  remained in the RAM.
 798:Generated_Source\PSoC5/xbee_spi.c **** *
 799:Generated_Source\PSoC5/xbee_spi.c **** * Side Effects:
 800:Generated_Source\PSoC5/xbee_spi.c **** *  Any received data not read from the RAM buffer will be lost when overwritten.
 801:Generated_Source\PSoC5/xbee_spi.c **** *
 802:Generated_Source\PSoC5/xbee_spi.c **** * Reentrant:
 803:Generated_Source\PSoC5/xbee_spi.c **** *  No.
 804:Generated_Source\PSoC5/xbee_spi.c **** *
 805:Generated_Source\PSoC5/xbee_spi.c **** *******************************************************************************/
 806:Generated_Source\PSoC5/xbee_spi.c **** void xbee_spi_ClearRxBuffer(void) 
 807:Generated_Source\PSoC5/xbee_spi.c **** {
 982              		.loc 1 807 0
 983              		.cfi_startproc
 984              		@ args = 0, pretend = 0, frame = 0
 985              		@ frame_needed = 1, uses_anonymous_args = 0
 986              		@ link register save eliminated.
 987 0000 80B4     		push	{r7}
 988              		.cfi_def_cfa_offset 4
 989              		.cfi_offset 7, -4
 990 0002 00AF     		add	r7, sp, #0
 991              		.cfi_def_cfa_register 7
 808:Generated_Source\PSoC5/xbee_spi.c ****     /* Clear Hardware RX FIFO */
 809:Generated_Source\PSoC5/xbee_spi.c ****     while(0u !=(xbee_spi_RX_STATUS_REG & xbee_spi_STS_RX_FIFO_NOT_EMPTY))
 992              		.loc 1 809 0
 993 0004 01E0     		b	.L65
 994              	.L66:
 810:Generated_Source\PSoC5/xbee_spi.c ****     {
 811:Generated_Source\PSoC5/xbee_spi.c ****         (void) CY_GET_REG8(xbee_spi_RXDATA_PTR);
 995              		.loc 1 811 0
 996 0006 064B     		ldr	r3, .L67
 997 0008 1B78     		ldrb	r3, [r3]
 998              	.L65:
 809:Generated_Source\PSoC5/xbee_spi.c ****     {
 999              		.loc 1 809 0
 1000 000a 064B     		ldr	r3, .L67+4
 1001 000c 1B78     		ldrb	r3, [r3]
 1002 000e DBB2     		uxtb	r3, r3
 1003 0010 03F02003 		and	r3, r3, #32
 1004 0014 002B     		cmp	r3, #0
 1005 0016 F6D1     		bne	.L66
 812:Generated_Source\PSoC5/xbee_spi.c ****     }
 813:Generated_Source\PSoC5/xbee_spi.c **** 
 814:Generated_Source\PSoC5/xbee_spi.c ****     #if(xbee_spi_RX_SOFTWARE_BUF_ENABLED)
 815:Generated_Source\PSoC5/xbee_spi.c ****         /* Disable RX interrupt to protect global veriables */
 816:Generated_Source\PSoC5/xbee_spi.c ****         xbee_spi_DisableRxInt();
 817:Generated_Source\PSoC5/xbee_spi.c **** 
ARM GAS  D:\Windows\AppData\Local\Temp\ccLjcK0k.s 			page 33


 818:Generated_Source\PSoC5/xbee_spi.c ****         xbee_spi_rxBufferFull  = 0u;
 819:Generated_Source\PSoC5/xbee_spi.c ****         xbee_spi_rxBufferRead  = 0u;
 820:Generated_Source\PSoC5/xbee_spi.c ****         xbee_spi_rxBufferWrite = 0u;
 821:Generated_Source\PSoC5/xbee_spi.c **** 
 822:Generated_Source\PSoC5/xbee_spi.c ****         xbee_spi_EnableRxInt();
 823:Generated_Source\PSoC5/xbee_spi.c ****     #endif /* (xbee_spi_RX_SOFTWARE_BUF_ENABLED) */
 824:Generated_Source\PSoC5/xbee_spi.c **** }
 1006              		.loc 1 824 0
 1007 0018 BD46     		mov	sp, r7
 1008              		.cfi_def_cfa_register 13
 1009              		@ sp needed
 1010 001a 5DF8047B 		ldr	r7, [sp], #4
 1011              		.cfi_restore 7
 1012              		.cfi_def_cfa_offset 0
 1013 001e 7047     		bx	lr
 1014              	.L68:
 1015              		.align	2
 1016              	.L67:
 1017 0020 56650040 		.word	1073767766
 1018 0024 64640040 		.word	1073767524
 1019              		.cfi_endproc
 1020              	.LFE16:
 1021              		.size	xbee_spi_ClearRxBuffer, .-xbee_spi_ClearRxBuffer
 1022              		.section	.text.xbee_spi_ClearTxBuffer,"ax",%progbits
 1023              		.align	2
 1024              		.global	xbee_spi_ClearTxBuffer
 1025              		.thumb
 1026              		.thumb_func
 1027              		.type	xbee_spi_ClearTxBuffer, %function
 1028              	xbee_spi_ClearTxBuffer:
 1029              	.LFB17:
 825:Generated_Source\PSoC5/xbee_spi.c **** 
 826:Generated_Source\PSoC5/xbee_spi.c **** 
 827:Generated_Source\PSoC5/xbee_spi.c **** /*******************************************************************************
 828:Generated_Source\PSoC5/xbee_spi.c **** * Function Name: xbee_spi_ClearTxBuffer
 829:Generated_Source\PSoC5/xbee_spi.c **** ********************************************************************************
 830:Generated_Source\PSoC5/xbee_spi.c **** *
 831:Generated_Source\PSoC5/xbee_spi.c **** * Summary:
 832:Generated_Source\PSoC5/xbee_spi.c **** *  Clear the TX RAM buffer by setting the read and write pointers both to zero.
 833:Generated_Source\PSoC5/xbee_spi.c **** *
 834:Generated_Source\PSoC5/xbee_spi.c **** * Parameters:
 835:Generated_Source\PSoC5/xbee_spi.c **** *  None.
 836:Generated_Source\PSoC5/xbee_spi.c **** *
 837:Generated_Source\PSoC5/xbee_spi.c **** * Return:
 838:Generated_Source\PSoC5/xbee_spi.c **** *  None.
 839:Generated_Source\PSoC5/xbee_spi.c **** *
 840:Generated_Source\PSoC5/xbee_spi.c **** * Global variables:
 841:Generated_Source\PSoC5/xbee_spi.c **** *  xbee_spi_txBufferWrite - used for the account of the bytes which
 842:Generated_Source\PSoC5/xbee_spi.c **** *  have been written down in the TX software buffer, modified every function
 843:Generated_Source\PSoC5/xbee_spi.c **** *  call - resets to zero.
 844:Generated_Source\PSoC5/xbee_spi.c **** *  xbee_spi_txBufferRead - used for the account of the bytes which
 845:Generated_Source\PSoC5/xbee_spi.c **** *  have been read from the TX software buffer, modified every function call -
 846:Generated_Source\PSoC5/xbee_spi.c **** *  resets to zero.
 847:Generated_Source\PSoC5/xbee_spi.c **** *
 848:Generated_Source\PSoC5/xbee_spi.c **** * Theory:
 849:Generated_Source\PSoC5/xbee_spi.c **** *  Setting the pointers to zero makes the system believe there is no data to
 850:Generated_Source\PSoC5/xbee_spi.c **** *  read and writing will resume at address 0 overwriting any data that may have
ARM GAS  D:\Windows\AppData\Local\Temp\ccLjcK0k.s 			page 34


 851:Generated_Source\PSoC5/xbee_spi.c **** *  remained in the RAM.
 852:Generated_Source\PSoC5/xbee_spi.c **** *
 853:Generated_Source\PSoC5/xbee_spi.c **** * Side Effects:
 854:Generated_Source\PSoC5/xbee_spi.c **** *  Any data not yet transmitted from the RAM buffer will be lost when
 855:Generated_Source\PSoC5/xbee_spi.c **** *  overwritten.
 856:Generated_Source\PSoC5/xbee_spi.c **** *
 857:Generated_Source\PSoC5/xbee_spi.c **** * Reentrant:
 858:Generated_Source\PSoC5/xbee_spi.c **** *  No.
 859:Generated_Source\PSoC5/xbee_spi.c **** *
 860:Generated_Source\PSoC5/xbee_spi.c **** *******************************************************************************/
 861:Generated_Source\PSoC5/xbee_spi.c **** void xbee_spi_ClearTxBuffer(void) 
 862:Generated_Source\PSoC5/xbee_spi.c **** {
 1030              		.loc 1 862 0
 1031              		.cfi_startproc
 1032              		@ args = 0, pretend = 0, frame = 8
 1033              		@ frame_needed = 1, uses_anonymous_args = 0
 1034 0000 80B5     		push	{r7, lr}
 1035              		.cfi_def_cfa_offset 8
 1036              		.cfi_offset 7, -8
 1037              		.cfi_offset 14, -4
 1038 0002 82B0     		sub	sp, sp, #8
 1039              		.cfi_def_cfa_offset 16
 1040 0004 00AF     		add	r7, sp, #0
 1041              		.cfi_def_cfa_register 7
 863:Generated_Source\PSoC5/xbee_spi.c ****     uint8 enableInterrupts;
 864:Generated_Source\PSoC5/xbee_spi.c **** 
 865:Generated_Source\PSoC5/xbee_spi.c ****     enableInterrupts = CyEnterCriticalSection();
 1042              		.loc 1 865 0
 1043 0006 FFF7FEFF 		bl	CyEnterCriticalSection
 1044 000a 0346     		mov	r3, r0
 1045 000c FB71     		strb	r3, [r7, #7]
 866:Generated_Source\PSoC5/xbee_spi.c ****     /* Clear TX FIFO */
 867:Generated_Source\PSoC5/xbee_spi.c ****     xbee_spi_AUX_CONTROL_DP0_REG |= ((uint8)  xbee_spi_TX_FIFO_CLR);
 1046              		.loc 1 867 0
 1047 000e 164A     		ldr	r2, .L70
 1048 0010 154B     		ldr	r3, .L70
 1049 0012 1B78     		ldrb	r3, [r3]
 1050 0014 DBB2     		uxtb	r3, r3
 1051 0016 43F00103 		orr	r3, r3, #1
 1052 001a DBB2     		uxtb	r3, r3
 1053 001c 1370     		strb	r3, [r2]
 868:Generated_Source\PSoC5/xbee_spi.c ****     xbee_spi_AUX_CONTROL_DP0_REG &= ((uint8) ~xbee_spi_TX_FIFO_CLR);
 1054              		.loc 1 868 0
 1055 001e 124A     		ldr	r2, .L70
 1056 0020 114B     		ldr	r3, .L70
 1057 0022 1B78     		ldrb	r3, [r3]
 1058 0024 DBB2     		uxtb	r3, r3
 1059 0026 23F00103 		bic	r3, r3, #1
 1060 002a DBB2     		uxtb	r3, r3
 1061 002c 1370     		strb	r3, [r2]
 869:Generated_Source\PSoC5/xbee_spi.c **** 
 870:Generated_Source\PSoC5/xbee_spi.c ****     #if(xbee_spi_USE_SECOND_DATAPATH)
 871:Generated_Source\PSoC5/xbee_spi.c ****         /* Clear TX FIFO for 2nd Datapath */
 872:Generated_Source\PSoC5/xbee_spi.c ****         xbee_spi_AUX_CONTROL_DP1_REG |= ((uint8)  xbee_spi_TX_FIFO_CLR);
 873:Generated_Source\PSoC5/xbee_spi.c ****         xbee_spi_AUX_CONTROL_DP1_REG &= ((uint8) ~xbee_spi_TX_FIFO_CLR);
 874:Generated_Source\PSoC5/xbee_spi.c ****     #endif /* (xbee_spi_USE_SECOND_DATAPATH) */
 875:Generated_Source\PSoC5/xbee_spi.c ****     CyExitCriticalSection(enableInterrupts);
ARM GAS  D:\Windows\AppData\Local\Temp\ccLjcK0k.s 			page 35


 1062              		.loc 1 875 0
 1063 002e FB79     		ldrb	r3, [r7, #7]	@ zero_extendqisi2
 1064 0030 1846     		mov	r0, r3
 1065 0032 FFF7FEFF 		bl	CyExitCriticalSection
 876:Generated_Source\PSoC5/xbee_spi.c **** 
 877:Generated_Source\PSoC5/xbee_spi.c ****     #if(xbee_spi_TX_SOFTWARE_BUF_ENABLED)
 878:Generated_Source\PSoC5/xbee_spi.c ****         /* Disable TX interrupt to protect global veriables */
 879:Generated_Source\PSoC5/xbee_spi.c ****         xbee_spi_DisableTxInt();
 1066              		.loc 1 879 0
 1067 0036 FFF7FEFF 		bl	xbee_spi_DisableTxInt
 880:Generated_Source\PSoC5/xbee_spi.c **** 
 881:Generated_Source\PSoC5/xbee_spi.c ****         xbee_spi_txBufferFull  = 0u;
 1068              		.loc 1 881 0
 1069 003a 0C4B     		ldr	r3, .L70+4
 1070 003c 0022     		movs	r2, #0
 1071 003e 1A70     		strb	r2, [r3]
 882:Generated_Source\PSoC5/xbee_spi.c ****         xbee_spi_txBufferRead  = 0u;
 1072              		.loc 1 882 0
 1073 0040 0B4B     		ldr	r3, .L70+8
 1074 0042 0022     		movs	r2, #0
 1075 0044 1A70     		strb	r2, [r3]
 883:Generated_Source\PSoC5/xbee_spi.c ****         xbee_spi_txBufferWrite = 0u;
 1076              		.loc 1 883 0
 1077 0046 0B4B     		ldr	r3, .L70+12
 1078 0048 0022     		movs	r2, #0
 1079 004a 1A70     		strb	r2, [r3]
 884:Generated_Source\PSoC5/xbee_spi.c **** 
 885:Generated_Source\PSoC5/xbee_spi.c ****         /* Buffer is EMPTY: disable TX FIFO NOT FULL interrupt */
 886:Generated_Source\PSoC5/xbee_spi.c ****         xbee_spi_TX_STATUS_MASK_REG &= ((uint8) ~xbee_spi_STS_TX_FIFO_NOT_FULL);
 1080              		.loc 1 886 0
 1081 004c 0A4A     		ldr	r2, .L70+16
 1082 004e 0A4B     		ldr	r3, .L70+16
 1083 0050 1B78     		ldrb	r3, [r3]
 1084 0052 DBB2     		uxtb	r3, r3
 1085 0054 23F00403 		bic	r3, r3, #4
 1086 0058 DBB2     		uxtb	r3, r3
 1087 005a 1370     		strb	r3, [r2]
 887:Generated_Source\PSoC5/xbee_spi.c **** 
 888:Generated_Source\PSoC5/xbee_spi.c ****         xbee_spi_EnableTxInt();
 1088              		.loc 1 888 0
 1089 005c FFF7FEFF 		bl	xbee_spi_EnableTxInt
 889:Generated_Source\PSoC5/xbee_spi.c ****     #endif /* (xbee_spi_TX_SOFTWARE_BUF_ENABLED) */
 890:Generated_Source\PSoC5/xbee_spi.c **** }
 1090              		.loc 1 890 0
 1091 0060 0837     		adds	r7, r7, #8
 1092              		.cfi_def_cfa_offset 8
 1093 0062 BD46     		mov	sp, r7
 1094              		.cfi_def_cfa_register 13
 1095              		@ sp needed
 1096 0064 80BD     		pop	{r7, pc}
 1097              	.L71:
 1098 0066 00BF     		.align	2
 1099              	.L70:
 1100 0068 96650040 		.word	1073767830
 1101 006c 00000000 		.word	xbee_spi_txBufferFull
 1102 0070 00000000 		.word	xbee_spi_txBufferRead
 1103 0074 00000000 		.word	xbee_spi_txBufferWrite
ARM GAS  D:\Windows\AppData\Local\Temp\ccLjcK0k.s 			page 36


 1104 0078 86650040 		.word	1073767814
 1105              		.cfi_endproc
 1106              	.LFE17:
 1107              		.size	xbee_spi_ClearTxBuffer, .-xbee_spi_ClearTxBuffer
 1108              		.section	.text.xbee_spi_PutArray,"ax",%progbits
 1109              		.align	2
 1110              		.global	xbee_spi_PutArray
 1111              		.thumb
 1112              		.thumb_func
 1113              		.type	xbee_spi_PutArray, %function
 1114              	xbee_spi_PutArray:
 1115              	.LFB18:
 891:Generated_Source\PSoC5/xbee_spi.c **** 
 892:Generated_Source\PSoC5/xbee_spi.c **** 
 893:Generated_Source\PSoC5/xbee_spi.c **** #if(0u != xbee_spi_BIDIRECTIONAL_MODE)
 894:Generated_Source\PSoC5/xbee_spi.c ****     /*******************************************************************************
 895:Generated_Source\PSoC5/xbee_spi.c ****     * Function Name: xbee_spi_TxEnable
 896:Generated_Source\PSoC5/xbee_spi.c ****     ********************************************************************************
 897:Generated_Source\PSoC5/xbee_spi.c ****     *
 898:Generated_Source\PSoC5/xbee_spi.c ****     * Summary:
 899:Generated_Source\PSoC5/xbee_spi.c ****     *  If the SPI master is configured to use a single bi-directional pin then this
 900:Generated_Source\PSoC5/xbee_spi.c ****     *  will set the bi-directional pin to transmit.
 901:Generated_Source\PSoC5/xbee_spi.c ****     *
 902:Generated_Source\PSoC5/xbee_spi.c ****     * Parameters:
 903:Generated_Source\PSoC5/xbee_spi.c ****     *  None.
 904:Generated_Source\PSoC5/xbee_spi.c ****     *
 905:Generated_Source\PSoC5/xbee_spi.c ****     * Return:
 906:Generated_Source\PSoC5/xbee_spi.c ****     *  None.
 907:Generated_Source\PSoC5/xbee_spi.c ****     *
 908:Generated_Source\PSoC5/xbee_spi.c ****     *******************************************************************************/
 909:Generated_Source\PSoC5/xbee_spi.c ****     void xbee_spi_TxEnable(void) 
 910:Generated_Source\PSoC5/xbee_spi.c ****     {
 911:Generated_Source\PSoC5/xbee_spi.c ****         xbee_spi_CONTROL_REG |= xbee_spi_CTRL_TX_SIGNAL_EN;
 912:Generated_Source\PSoC5/xbee_spi.c ****     }
 913:Generated_Source\PSoC5/xbee_spi.c **** 
 914:Generated_Source\PSoC5/xbee_spi.c **** 
 915:Generated_Source\PSoC5/xbee_spi.c ****     /*******************************************************************************
 916:Generated_Source\PSoC5/xbee_spi.c ****     * Function Name: xbee_spi_TxDisable
 917:Generated_Source\PSoC5/xbee_spi.c ****     ********************************************************************************
 918:Generated_Source\PSoC5/xbee_spi.c ****     *
 919:Generated_Source\PSoC5/xbee_spi.c ****     * Summary:
 920:Generated_Source\PSoC5/xbee_spi.c ****     *  If the SPI master is configured to use a single bi-directional pin then this
 921:Generated_Source\PSoC5/xbee_spi.c ****     *  will set the bi-directional pin to receive.
 922:Generated_Source\PSoC5/xbee_spi.c ****     *
 923:Generated_Source\PSoC5/xbee_spi.c ****     * Parameters:
 924:Generated_Source\PSoC5/xbee_spi.c ****     *  None.
 925:Generated_Source\PSoC5/xbee_spi.c ****     *
 926:Generated_Source\PSoC5/xbee_spi.c ****     * Return:
 927:Generated_Source\PSoC5/xbee_spi.c ****     *  None.
 928:Generated_Source\PSoC5/xbee_spi.c ****     *
 929:Generated_Source\PSoC5/xbee_spi.c ****     *******************************************************************************/
 930:Generated_Source\PSoC5/xbee_spi.c ****     void xbee_spi_TxDisable(void) 
 931:Generated_Source\PSoC5/xbee_spi.c ****     {
 932:Generated_Source\PSoC5/xbee_spi.c ****         xbee_spi_CONTROL_REG &= ((uint8) ~xbee_spi_CTRL_TX_SIGNAL_EN);
 933:Generated_Source\PSoC5/xbee_spi.c ****     }
 934:Generated_Source\PSoC5/xbee_spi.c **** 
 935:Generated_Source\PSoC5/xbee_spi.c **** #endif /* (0u != xbee_spi_BIDIRECTIONAL_MODE) */
ARM GAS  D:\Windows\AppData\Local\Temp\ccLjcK0k.s 			page 37


 936:Generated_Source\PSoC5/xbee_spi.c **** 
 937:Generated_Source\PSoC5/xbee_spi.c **** 
 938:Generated_Source\PSoC5/xbee_spi.c **** /*******************************************************************************
 939:Generated_Source\PSoC5/xbee_spi.c **** * Function Name: xbee_spi_PutArray
 940:Generated_Source\PSoC5/xbee_spi.c **** ********************************************************************************
 941:Generated_Source\PSoC5/xbee_spi.c **** *
 942:Generated_Source\PSoC5/xbee_spi.c **** * Summary:
 943:Generated_Source\PSoC5/xbee_spi.c **** *  Write available data from ROM/RAM to the TX buffer while space is available
 944:Generated_Source\PSoC5/xbee_spi.c **** *  in the TX buffer. Keep trying until all data is passed to the TX buffer.
 945:Generated_Source\PSoC5/xbee_spi.c **** *
 946:Generated_Source\PSoC5/xbee_spi.c **** * Parameters:
 947:Generated_Source\PSoC5/xbee_spi.c **** *  *buffer: Pointer to the location in RAM containing the data to send
 948:Generated_Source\PSoC5/xbee_spi.c **** *  byteCount: The number of bytes to move to the transmit buffer.
 949:Generated_Source\PSoC5/xbee_spi.c **** *
 950:Generated_Source\PSoC5/xbee_spi.c **** * Return:
 951:Generated_Source\PSoC5/xbee_spi.c **** *  None.
 952:Generated_Source\PSoC5/xbee_spi.c **** *
 953:Generated_Source\PSoC5/xbee_spi.c **** * Side Effects:
 954:Generated_Source\PSoC5/xbee_spi.c **** *  Will stay in this routine until all data has been sent.  May get locked in
 955:Generated_Source\PSoC5/xbee_spi.c **** *  this loop if data is not being initiated by the master if there is not
 956:Generated_Source\PSoC5/xbee_spi.c **** *  enough room in the TX FIFO.
 957:Generated_Source\PSoC5/xbee_spi.c **** *
 958:Generated_Source\PSoC5/xbee_spi.c **** * Reentrant:
 959:Generated_Source\PSoC5/xbee_spi.c **** *  No.
 960:Generated_Source\PSoC5/xbee_spi.c **** *
 961:Generated_Source\PSoC5/xbee_spi.c **** *******************************************************************************/
 962:Generated_Source\PSoC5/xbee_spi.c **** void xbee_spi_PutArray(const uint8 buffer[], uint8 byteCount)
 963:Generated_Source\PSoC5/xbee_spi.c ****                                                                           
 964:Generated_Source\PSoC5/xbee_spi.c **** {
 1116              		.loc 1 964 0
 1117              		.cfi_startproc
 1118              		@ args = 0, pretend = 0, frame = 16
 1119              		@ frame_needed = 1, uses_anonymous_args = 0
 1120 0000 80B5     		push	{r7, lr}
 1121              		.cfi_def_cfa_offset 8
 1122              		.cfi_offset 7, -8
 1123              		.cfi_offset 14, -4
 1124 0002 84B0     		sub	sp, sp, #16
 1125              		.cfi_def_cfa_offset 24
 1126 0004 00AF     		add	r7, sp, #0
 1127              		.cfi_def_cfa_register 7
 1128 0006 7860     		str	r0, [r7, #4]
 1129 0008 0B46     		mov	r3, r1
 1130 000a FB70     		strb	r3, [r7, #3]
 965:Generated_Source\PSoC5/xbee_spi.c ****     uint8 bufIndex;
 966:Generated_Source\PSoC5/xbee_spi.c **** 
 967:Generated_Source\PSoC5/xbee_spi.c ****     bufIndex = 0u;
 1131              		.loc 1 967 0
 1132 000c 0023     		movs	r3, #0
 1133 000e FB73     		strb	r3, [r7, #15]
 968:Generated_Source\PSoC5/xbee_spi.c **** 
 969:Generated_Source\PSoC5/xbee_spi.c ****     while(byteCount > 0u)
 1134              		.loc 1 969 0
 1135 0010 0CE0     		b	.L73
 1136              	.L74:
 970:Generated_Source\PSoC5/xbee_spi.c ****     {
 971:Generated_Source\PSoC5/xbee_spi.c ****         xbee_spi_WriteTxData(buffer[bufIndex]);
ARM GAS  D:\Windows\AppData\Local\Temp\ccLjcK0k.s 			page 38


 1137              		.loc 1 971 0
 1138 0012 FB7B     		ldrb	r3, [r7, #15]	@ zero_extendqisi2
 1139 0014 7A68     		ldr	r2, [r7, #4]
 1140 0016 1344     		add	r3, r3, r2
 1141 0018 1B78     		ldrb	r3, [r3]	@ zero_extendqisi2
 1142 001a 1846     		mov	r0, r3
 1143 001c FFF7FEFF 		bl	xbee_spi_WriteTxData
 972:Generated_Source\PSoC5/xbee_spi.c ****         bufIndex++;
 1144              		.loc 1 972 0
 1145 0020 FB7B     		ldrb	r3, [r7, #15]	@ zero_extendqisi2
 1146 0022 0133     		adds	r3, r3, #1
 1147 0024 FB73     		strb	r3, [r7, #15]
 973:Generated_Source\PSoC5/xbee_spi.c ****         byteCount--;
 1148              		.loc 1 973 0
 1149 0026 FB78     		ldrb	r3, [r7, #3]	@ zero_extendqisi2
 1150 0028 013B     		subs	r3, r3, #1
 1151 002a FB70     		strb	r3, [r7, #3]
 1152              	.L73:
 969:Generated_Source\PSoC5/xbee_spi.c ****     {
 1153              		.loc 1 969 0
 1154 002c FB78     		ldrb	r3, [r7, #3]	@ zero_extendqisi2
 1155 002e 002B     		cmp	r3, #0
 1156 0030 EFD1     		bne	.L74
 974:Generated_Source\PSoC5/xbee_spi.c ****     }
 975:Generated_Source\PSoC5/xbee_spi.c **** }
 1157              		.loc 1 975 0
 1158 0032 1037     		adds	r7, r7, #16
 1159              		.cfi_def_cfa_offset 8
 1160 0034 BD46     		mov	sp, r7
 1161              		.cfi_def_cfa_register 13
 1162              		@ sp needed
 1163 0036 80BD     		pop	{r7, pc}
 1164              		.cfi_endproc
 1165              	.LFE18:
 1166              		.size	xbee_spi_PutArray, .-xbee_spi_PutArray
 1167              		.section	.text.xbee_spi_ClearFIFO,"ax",%progbits
 1168              		.align	2
 1169              		.global	xbee_spi_ClearFIFO
 1170              		.thumb
 1171              		.thumb_func
 1172              		.type	xbee_spi_ClearFIFO, %function
 1173              	xbee_spi_ClearFIFO:
 1174              	.LFB19:
 976:Generated_Source\PSoC5/xbee_spi.c **** 
 977:Generated_Source\PSoC5/xbee_spi.c **** 
 978:Generated_Source\PSoC5/xbee_spi.c **** /*******************************************************************************
 979:Generated_Source\PSoC5/xbee_spi.c **** * Function Name: xbee_spi_ClearFIFO
 980:Generated_Source\PSoC5/xbee_spi.c **** ********************************************************************************
 981:Generated_Source\PSoC5/xbee_spi.c **** *
 982:Generated_Source\PSoC5/xbee_spi.c **** * Summary:
 983:Generated_Source\PSoC5/xbee_spi.c **** *  Clear the RX and TX FIFO's of all data for a fresh start.
 984:Generated_Source\PSoC5/xbee_spi.c **** *
 985:Generated_Source\PSoC5/xbee_spi.c **** * Parameters:
 986:Generated_Source\PSoC5/xbee_spi.c **** *  None.
 987:Generated_Source\PSoC5/xbee_spi.c **** *
 988:Generated_Source\PSoC5/xbee_spi.c **** * Return:
 989:Generated_Source\PSoC5/xbee_spi.c **** *  None.
ARM GAS  D:\Windows\AppData\Local\Temp\ccLjcK0k.s 			page 39


 990:Generated_Source\PSoC5/xbee_spi.c **** *
 991:Generated_Source\PSoC5/xbee_spi.c **** * Side Effects:
 992:Generated_Source\PSoC5/xbee_spi.c **** *  Clear status register of the component.
 993:Generated_Source\PSoC5/xbee_spi.c **** *
 994:Generated_Source\PSoC5/xbee_spi.c **** *******************************************************************************/
 995:Generated_Source\PSoC5/xbee_spi.c **** void xbee_spi_ClearFIFO(void) 
 996:Generated_Source\PSoC5/xbee_spi.c **** {
 1175              		.loc 1 996 0
 1176              		.cfi_startproc
 1177              		@ args = 0, pretend = 0, frame = 8
 1178              		@ frame_needed = 1, uses_anonymous_args = 0
 1179 0000 80B5     		push	{r7, lr}
 1180              		.cfi_def_cfa_offset 8
 1181              		.cfi_offset 7, -8
 1182              		.cfi_offset 14, -4
 1183 0002 82B0     		sub	sp, sp, #8
 1184              		.cfi_def_cfa_offset 16
 1185 0004 00AF     		add	r7, sp, #0
 1186              		.cfi_def_cfa_register 7
 997:Generated_Source\PSoC5/xbee_spi.c ****     uint8 enableInterrupts;
 998:Generated_Source\PSoC5/xbee_spi.c **** 
 999:Generated_Source\PSoC5/xbee_spi.c ****     /* Clear Hardware RX FIFO */
1000:Generated_Source\PSoC5/xbee_spi.c ****     while(0u !=(xbee_spi_RX_STATUS_REG & xbee_spi_STS_RX_FIFO_NOT_EMPTY))
 1187              		.loc 1 1000 0
 1188 0006 01E0     		b	.L76
 1189              	.L77:
1001:Generated_Source\PSoC5/xbee_spi.c ****     {
1002:Generated_Source\PSoC5/xbee_spi.c ****         (void) CY_GET_REG8(xbee_spi_RXDATA_PTR);
 1190              		.loc 1 1002 0
 1191 0008 114B     		ldr	r3, .L78
 1192 000a 1B78     		ldrb	r3, [r3]
 1193              	.L76:
1000:Generated_Source\PSoC5/xbee_spi.c ****     {
 1194              		.loc 1 1000 0
 1195 000c 114B     		ldr	r3, .L78+4
 1196 000e 1B78     		ldrb	r3, [r3]
 1197 0010 DBB2     		uxtb	r3, r3
 1198 0012 03F02003 		and	r3, r3, #32
 1199 0016 002B     		cmp	r3, #0
 1200 0018 F6D1     		bne	.L77
1003:Generated_Source\PSoC5/xbee_spi.c ****     }
1004:Generated_Source\PSoC5/xbee_spi.c **** 
1005:Generated_Source\PSoC5/xbee_spi.c ****     enableInterrupts = CyEnterCriticalSection();
 1201              		.loc 1 1005 0
 1202 001a FFF7FEFF 		bl	CyEnterCriticalSection
 1203 001e 0346     		mov	r3, r0
 1204 0020 FB71     		strb	r3, [r7, #7]
1006:Generated_Source\PSoC5/xbee_spi.c ****     /* Clear TX FIFO */
1007:Generated_Source\PSoC5/xbee_spi.c ****     xbee_spi_AUX_CONTROL_DP0_REG |= ((uint8)  xbee_spi_TX_FIFO_CLR);
 1205              		.loc 1 1007 0
 1206 0022 0D4A     		ldr	r2, .L78+8
 1207 0024 0C4B     		ldr	r3, .L78+8
 1208 0026 1B78     		ldrb	r3, [r3]
 1209 0028 DBB2     		uxtb	r3, r3
 1210 002a 43F00103 		orr	r3, r3, #1
 1211 002e DBB2     		uxtb	r3, r3
 1212 0030 1370     		strb	r3, [r2]
ARM GAS  D:\Windows\AppData\Local\Temp\ccLjcK0k.s 			page 40


1008:Generated_Source\PSoC5/xbee_spi.c ****     xbee_spi_AUX_CONTROL_DP0_REG &= ((uint8) ~xbee_spi_TX_FIFO_CLR);
 1213              		.loc 1 1008 0
 1214 0032 094A     		ldr	r2, .L78+8
 1215 0034 084B     		ldr	r3, .L78+8
 1216 0036 1B78     		ldrb	r3, [r3]
 1217 0038 DBB2     		uxtb	r3, r3
 1218 003a 23F00103 		bic	r3, r3, #1
 1219 003e DBB2     		uxtb	r3, r3
 1220 0040 1370     		strb	r3, [r2]
1009:Generated_Source\PSoC5/xbee_spi.c **** 
1010:Generated_Source\PSoC5/xbee_spi.c ****     #if(xbee_spi_USE_SECOND_DATAPATH)
1011:Generated_Source\PSoC5/xbee_spi.c ****         /* Clear TX FIFO for 2nd Datapath */
1012:Generated_Source\PSoC5/xbee_spi.c ****         xbee_spi_AUX_CONTROL_DP1_REG |= ((uint8)  xbee_spi_TX_FIFO_CLR);
1013:Generated_Source\PSoC5/xbee_spi.c ****         xbee_spi_AUX_CONTROL_DP1_REG &= ((uint8) ~xbee_spi_TX_FIFO_CLR);
1014:Generated_Source\PSoC5/xbee_spi.c ****     #endif /* (xbee_spi_USE_SECOND_DATAPATH) */
1015:Generated_Source\PSoC5/xbee_spi.c ****     CyExitCriticalSection(enableInterrupts);
 1221              		.loc 1 1015 0
 1222 0042 FB79     		ldrb	r3, [r7, #7]	@ zero_extendqisi2
 1223 0044 1846     		mov	r0, r3
 1224 0046 FFF7FEFF 		bl	CyExitCriticalSection
1016:Generated_Source\PSoC5/xbee_spi.c **** }
 1225              		.loc 1 1016 0
 1226 004a 0837     		adds	r7, r7, #8
 1227              		.cfi_def_cfa_offset 8
 1228 004c BD46     		mov	sp, r7
 1229              		.cfi_def_cfa_register 13
 1230              		@ sp needed
 1231 004e 80BD     		pop	{r7, pc}
 1232              	.L79:
 1233              		.align	2
 1234              	.L78:
 1235 0050 56650040 		.word	1073767766
 1236 0054 64640040 		.word	1073767524
 1237 0058 96650040 		.word	1073767830
 1238              		.cfi_endproc
 1239              	.LFE19:
 1240              		.size	xbee_spi_ClearFIFO, .-xbee_spi_ClearFIFO
 1241              		.section	.text.xbee_spi_EnableInt,"ax",%progbits
 1242              		.align	2
 1243              		.global	xbee_spi_EnableInt
 1244              		.thumb
 1245              		.thumb_func
 1246              		.type	xbee_spi_EnableInt, %function
 1247              	xbee_spi_EnableInt:
 1248              	.LFB20:
1017:Generated_Source\PSoC5/xbee_spi.c **** 
1018:Generated_Source\PSoC5/xbee_spi.c **** 
1019:Generated_Source\PSoC5/xbee_spi.c **** /* Following functions are for version Compatibility, they are obsolete.
1020:Generated_Source\PSoC5/xbee_spi.c **** *  Please do not use it in new projects.
1021:Generated_Source\PSoC5/xbee_spi.c **** */
1022:Generated_Source\PSoC5/xbee_spi.c **** 
1023:Generated_Source\PSoC5/xbee_spi.c **** 
1024:Generated_Source\PSoC5/xbee_spi.c **** /*******************************************************************************
1025:Generated_Source\PSoC5/xbee_spi.c **** * Function Name: xbee_spi_EnableInt
1026:Generated_Source\PSoC5/xbee_spi.c **** ********************************************************************************
1027:Generated_Source\PSoC5/xbee_spi.c **** *
1028:Generated_Source\PSoC5/xbee_spi.c **** * Summary:
ARM GAS  D:\Windows\AppData\Local\Temp\ccLjcK0k.s 			page 41


1029:Generated_Source\PSoC5/xbee_spi.c **** *  Enable internal interrupt generation.
1030:Generated_Source\PSoC5/xbee_spi.c **** *
1031:Generated_Source\PSoC5/xbee_spi.c **** * Parameters:
1032:Generated_Source\PSoC5/xbee_spi.c **** *  None.
1033:Generated_Source\PSoC5/xbee_spi.c **** *
1034:Generated_Source\PSoC5/xbee_spi.c **** * Return:
1035:Generated_Source\PSoC5/xbee_spi.c **** *  None.
1036:Generated_Source\PSoC5/xbee_spi.c **** *
1037:Generated_Source\PSoC5/xbee_spi.c **** * Theory:
1038:Generated_Source\PSoC5/xbee_spi.c **** *  Enable the internal interrupt output -or- the interrupt component itself.
1039:Generated_Source\PSoC5/xbee_spi.c **** *
1040:Generated_Source\PSoC5/xbee_spi.c **** *******************************************************************************/
1041:Generated_Source\PSoC5/xbee_spi.c **** void xbee_spi_EnableInt(void) 
1042:Generated_Source\PSoC5/xbee_spi.c **** {
 1249              		.loc 1 1042 0
 1250              		.cfi_startproc
 1251              		@ args = 0, pretend = 0, frame = 0
 1252              		@ frame_needed = 1, uses_anonymous_args = 0
 1253 0000 80B5     		push	{r7, lr}
 1254              		.cfi_def_cfa_offset 8
 1255              		.cfi_offset 7, -8
 1256              		.cfi_offset 14, -4
 1257 0002 00AF     		add	r7, sp, #0
 1258              		.cfi_def_cfa_register 7
1043:Generated_Source\PSoC5/xbee_spi.c ****     xbee_spi_EnableRxInt();
 1259              		.loc 1 1043 0
 1260 0004 FFF7FEFF 		bl	xbee_spi_EnableRxInt
1044:Generated_Source\PSoC5/xbee_spi.c ****     xbee_spi_EnableTxInt();
 1261              		.loc 1 1044 0
 1262 0008 FFF7FEFF 		bl	xbee_spi_EnableTxInt
1045:Generated_Source\PSoC5/xbee_spi.c **** }
 1263              		.loc 1 1045 0
 1264 000c 80BD     		pop	{r7, pc}
 1265              		.cfi_endproc
 1266              	.LFE20:
 1267              		.size	xbee_spi_EnableInt, .-xbee_spi_EnableInt
 1268 000e 00BF     		.section	.text.xbee_spi_DisableInt,"ax",%progbits
 1269              		.align	2
 1270              		.global	xbee_spi_DisableInt
 1271              		.thumb
 1272              		.thumb_func
 1273              		.type	xbee_spi_DisableInt, %function
 1274              	xbee_spi_DisableInt:
 1275              	.LFB21:
1046:Generated_Source\PSoC5/xbee_spi.c **** 
1047:Generated_Source\PSoC5/xbee_spi.c **** 
1048:Generated_Source\PSoC5/xbee_spi.c **** /*******************************************************************************
1049:Generated_Source\PSoC5/xbee_spi.c **** * Function Name: xbee_spi_DisableInt
1050:Generated_Source\PSoC5/xbee_spi.c **** ********************************************************************************
1051:Generated_Source\PSoC5/xbee_spi.c **** *
1052:Generated_Source\PSoC5/xbee_spi.c **** * Summary:
1053:Generated_Source\PSoC5/xbee_spi.c **** *  Disable internal interrupt generation.
1054:Generated_Source\PSoC5/xbee_spi.c **** *
1055:Generated_Source\PSoC5/xbee_spi.c **** * Parameters:
1056:Generated_Source\PSoC5/xbee_spi.c **** *  None.
1057:Generated_Source\PSoC5/xbee_spi.c **** *
1058:Generated_Source\PSoC5/xbee_spi.c **** * Return:
ARM GAS  D:\Windows\AppData\Local\Temp\ccLjcK0k.s 			page 42


1059:Generated_Source\PSoC5/xbee_spi.c **** *  None.
1060:Generated_Source\PSoC5/xbee_spi.c **** *
1061:Generated_Source\PSoC5/xbee_spi.c **** * Theory:
1062:Generated_Source\PSoC5/xbee_spi.c **** *  Disable the internal interrupt output -or- the interrupt component itself.
1063:Generated_Source\PSoC5/xbee_spi.c **** *
1064:Generated_Source\PSoC5/xbee_spi.c **** *******************************************************************************/
1065:Generated_Source\PSoC5/xbee_spi.c **** void xbee_spi_DisableInt(void) 
1066:Generated_Source\PSoC5/xbee_spi.c **** {
 1276              		.loc 1 1066 0
 1277              		.cfi_startproc
 1278              		@ args = 0, pretend = 0, frame = 0
 1279              		@ frame_needed = 1, uses_anonymous_args = 0
 1280 0000 80B5     		push	{r7, lr}
 1281              		.cfi_def_cfa_offset 8
 1282              		.cfi_offset 7, -8
 1283              		.cfi_offset 14, -4
 1284 0002 00AF     		add	r7, sp, #0
 1285              		.cfi_def_cfa_register 7
1067:Generated_Source\PSoC5/xbee_spi.c ****     xbee_spi_DisableTxInt();
 1286              		.loc 1 1067 0
 1287 0004 FFF7FEFF 		bl	xbee_spi_DisableTxInt
1068:Generated_Source\PSoC5/xbee_spi.c ****     xbee_spi_DisableRxInt();
 1288              		.loc 1 1068 0
 1289 0008 FFF7FEFF 		bl	xbee_spi_DisableRxInt
1069:Generated_Source\PSoC5/xbee_spi.c **** }
 1290              		.loc 1 1069 0
 1291 000c 80BD     		pop	{r7, pc}
 1292              		.cfi_endproc
 1293              	.LFE21:
 1294              		.size	xbee_spi_DisableInt, .-xbee_spi_DisableInt
 1295 000e 00BF     		.section	.text.xbee_spi_SetInterruptMode,"ax",%progbits
 1296              		.align	2
 1297              		.global	xbee_spi_SetInterruptMode
 1298              		.thumb
 1299              		.thumb_func
 1300              		.type	xbee_spi_SetInterruptMode, %function
 1301              	xbee_spi_SetInterruptMode:
 1302              	.LFB22:
1070:Generated_Source\PSoC5/xbee_spi.c **** 
1071:Generated_Source\PSoC5/xbee_spi.c **** 
1072:Generated_Source\PSoC5/xbee_spi.c **** /*******************************************************************************
1073:Generated_Source\PSoC5/xbee_spi.c **** * Function Name: xbee_spi_SetInterruptMode
1074:Generated_Source\PSoC5/xbee_spi.c **** ********************************************************************************
1075:Generated_Source\PSoC5/xbee_spi.c **** *
1076:Generated_Source\PSoC5/xbee_spi.c **** * Summary:
1077:Generated_Source\PSoC5/xbee_spi.c **** *  Configure which status bits trigger an interrupt event.
1078:Generated_Source\PSoC5/xbee_spi.c **** *
1079:Generated_Source\PSoC5/xbee_spi.c **** * Parameters:
1080:Generated_Source\PSoC5/xbee_spi.c **** *  intSrc: An or'd combination of the desired status bit masks (defined in the
1081:Generated_Source\PSoC5/xbee_spi.c **** *  header file).
1082:Generated_Source\PSoC5/xbee_spi.c **** *
1083:Generated_Source\PSoC5/xbee_spi.c **** * Return:
1084:Generated_Source\PSoC5/xbee_spi.c **** *  None.
1085:Generated_Source\PSoC5/xbee_spi.c **** *
1086:Generated_Source\PSoC5/xbee_spi.c **** * Theory:
1087:Generated_Source\PSoC5/xbee_spi.c **** *  Enables the output of specific status bits to the interrupt controller.
1088:Generated_Source\PSoC5/xbee_spi.c **** *
ARM GAS  D:\Windows\AppData\Local\Temp\ccLjcK0k.s 			page 43


1089:Generated_Source\PSoC5/xbee_spi.c **** *******************************************************************************/
1090:Generated_Source\PSoC5/xbee_spi.c **** void xbee_spi_SetInterruptMode(uint8 intSrc) 
1091:Generated_Source\PSoC5/xbee_spi.c **** {
 1303              		.loc 1 1091 0
 1304              		.cfi_startproc
 1305              		@ args = 0, pretend = 0, frame = 8
 1306              		@ frame_needed = 1, uses_anonymous_args = 0
 1307              		@ link register save eliminated.
 1308 0000 80B4     		push	{r7}
 1309              		.cfi_def_cfa_offset 4
 1310              		.cfi_offset 7, -4
 1311 0002 83B0     		sub	sp, sp, #12
 1312              		.cfi_def_cfa_offset 16
 1313 0004 00AF     		add	r7, sp, #0
 1314              		.cfi_def_cfa_register 7
 1315 0006 0346     		mov	r3, r0
 1316 0008 FB71     		strb	r3, [r7, #7]
1092:Generated_Source\PSoC5/xbee_spi.c ****     xbee_spi_TX_STATUS_MASK_REG  = (intSrc & ((uint8) ~xbee_spi_STS_SPI_IDLE));
 1317              		.loc 1 1092 0
 1318 000a 074A     		ldr	r2, .L83
 1319 000c FB79     		ldrb	r3, [r7, #7]
 1320 000e 23F01003 		bic	r3, r3, #16
 1321 0012 DBB2     		uxtb	r3, r3
 1322 0014 1370     		strb	r3, [r2]
1093:Generated_Source\PSoC5/xbee_spi.c ****     xbee_spi_RX_STATUS_MASK_REG  =  intSrc;
 1323              		.loc 1 1093 0
 1324 0016 054A     		ldr	r2, .L83+4
 1325 0018 FB79     		ldrb	r3, [r7, #7]
 1326 001a 1370     		strb	r3, [r2]
1094:Generated_Source\PSoC5/xbee_spi.c **** }
 1327              		.loc 1 1094 0
 1328 001c 0C37     		adds	r7, r7, #12
 1329              		.cfi_def_cfa_offset 4
 1330 001e BD46     		mov	sp, r7
 1331              		.cfi_def_cfa_register 13
 1332              		@ sp needed
 1333 0020 5DF8047B 		ldr	r7, [sp], #4
 1334              		.cfi_restore 7
 1335              		.cfi_def_cfa_offset 0
 1336 0024 7047     		bx	lr
 1337              	.L84:
 1338 0026 00BF     		.align	2
 1339              	.L83:
 1340 0028 86650040 		.word	1073767814
 1341 002c 84640040 		.word	1073767556
 1342              		.cfi_endproc
 1343              	.LFE22:
 1344              		.size	xbee_spi_SetInterruptMode, .-xbee_spi_SetInterruptMode
 1345              		.section	.text.xbee_spi_ReadStatus,"ax",%progbits
 1346              		.align	2
 1347              		.global	xbee_spi_ReadStatus
 1348              		.thumb
 1349              		.thumb_func
 1350              		.type	xbee_spi_ReadStatus, %function
 1351              	xbee_spi_ReadStatus:
 1352              	.LFB23:
1095:Generated_Source\PSoC5/xbee_spi.c **** 
ARM GAS  D:\Windows\AppData\Local\Temp\ccLjcK0k.s 			page 44


1096:Generated_Source\PSoC5/xbee_spi.c **** 
1097:Generated_Source\PSoC5/xbee_spi.c **** /*******************************************************************************
1098:Generated_Source\PSoC5/xbee_spi.c **** * Function Name: xbee_spi_ReadStatus
1099:Generated_Source\PSoC5/xbee_spi.c **** ********************************************************************************
1100:Generated_Source\PSoC5/xbee_spi.c **** *
1101:Generated_Source\PSoC5/xbee_spi.c **** * Summary:
1102:Generated_Source\PSoC5/xbee_spi.c **** *  Read the status register for the component.
1103:Generated_Source\PSoC5/xbee_spi.c **** *
1104:Generated_Source\PSoC5/xbee_spi.c **** * Parameters:
1105:Generated_Source\PSoC5/xbee_spi.c **** *  None.
1106:Generated_Source\PSoC5/xbee_spi.c **** *
1107:Generated_Source\PSoC5/xbee_spi.c **** * Return:
1108:Generated_Source\PSoC5/xbee_spi.c **** *  Contents of the status register.
1109:Generated_Source\PSoC5/xbee_spi.c **** *
1110:Generated_Source\PSoC5/xbee_spi.c **** * Global variables:
1111:Generated_Source\PSoC5/xbee_spi.c **** *  xbee_spi_swStatus - used to store in software status register,
1112:Generated_Source\PSoC5/xbee_spi.c **** *  modified every function call - resets to zero.
1113:Generated_Source\PSoC5/xbee_spi.c **** *
1114:Generated_Source\PSoC5/xbee_spi.c **** * Theory:
1115:Generated_Source\PSoC5/xbee_spi.c **** *  Allows the user and the API to read the status register for error detection
1116:Generated_Source\PSoC5/xbee_spi.c **** *  and flow control.
1117:Generated_Source\PSoC5/xbee_spi.c **** *
1118:Generated_Source\PSoC5/xbee_spi.c **** * Side Effects:
1119:Generated_Source\PSoC5/xbee_spi.c **** *  Clear status register of the component.
1120:Generated_Source\PSoC5/xbee_spi.c **** *
1121:Generated_Source\PSoC5/xbee_spi.c **** * Reentrant:
1122:Generated_Source\PSoC5/xbee_spi.c **** *  No.
1123:Generated_Source\PSoC5/xbee_spi.c **** *
1124:Generated_Source\PSoC5/xbee_spi.c **** *******************************************************************************/
1125:Generated_Source\PSoC5/xbee_spi.c **** uint8 xbee_spi_ReadStatus(void) 
1126:Generated_Source\PSoC5/xbee_spi.c **** {
 1353              		.loc 1 1126 0
 1354              		.cfi_startproc
 1355              		@ args = 0, pretend = 0, frame = 8
 1356              		@ frame_needed = 1, uses_anonymous_args = 0
 1357 0000 80B5     		push	{r7, lr}
 1358              		.cfi_def_cfa_offset 8
 1359              		.cfi_offset 7, -8
 1360              		.cfi_offset 14, -4
 1361 0002 82B0     		sub	sp, sp, #8
 1362              		.cfi_def_cfa_offset 16
 1363 0004 00AF     		add	r7, sp, #0
 1364              		.cfi_def_cfa_register 7
1127:Generated_Source\PSoC5/xbee_spi.c ****     uint8 tmpStatus;
1128:Generated_Source\PSoC5/xbee_spi.c **** 
1129:Generated_Source\PSoC5/xbee_spi.c ****     #if(xbee_spi_TX_SOFTWARE_BUF_ENABLED || xbee_spi_RX_SOFTWARE_BUF_ENABLED)
1130:Generated_Source\PSoC5/xbee_spi.c **** 
1131:Generated_Source\PSoC5/xbee_spi.c ****         xbee_spi_DisableInt();
 1365              		.loc 1 1131 0
 1366 0006 FFF7FEFF 		bl	xbee_spi_DisableInt
1132:Generated_Source\PSoC5/xbee_spi.c **** 
1133:Generated_Source\PSoC5/xbee_spi.c ****         tmpStatus  = xbee_spi_GET_STATUS_RX(xbee_spi_swStatusRx);
 1367              		.loc 1 1133 0
 1368 000a 154B     		ldr	r3, .L87
 1369 000c 1B78     		ldrb	r3, [r3]
 1370 000e DAB2     		uxtb	r2, r3
 1371 0010 144B     		ldr	r3, .L87+4
ARM GAS  D:\Windows\AppData\Local\Temp\ccLjcK0k.s 			page 45


 1372 0012 1B78     		ldrb	r3, [r3]
 1373 0014 DBB2     		uxtb	r3, r3
 1374 0016 03F04003 		and	r3, r3, #64
 1375 001a DBB2     		uxtb	r3, r3
 1376 001c 1343     		orrs	r3, r3, r2
 1377 001e FB71     		strb	r3, [r7, #7]
1134:Generated_Source\PSoC5/xbee_spi.c ****         tmpStatus |= xbee_spi_GET_STATUS_TX(xbee_spi_swStatusTx);
 1378              		.loc 1 1134 0
 1379 0020 114B     		ldr	r3, .L87+8
 1380 0022 1B78     		ldrb	r3, [r3]
 1381 0024 DAB2     		uxtb	r2, r3
 1382 0026 114B     		ldr	r3, .L87+12
 1383 0028 1B78     		ldrb	r3, [r3]
 1384 002a DBB2     		uxtb	r3, r3
 1385 002c 03F00903 		and	r3, r3, #9
 1386 0030 DBB2     		uxtb	r3, r3
 1387 0032 1343     		orrs	r3, r3, r2
 1388 0034 DAB2     		uxtb	r2, r3
 1389 0036 FB79     		ldrb	r3, [r7, #7]
 1390 0038 1343     		orrs	r3, r3, r2
 1391 003a FB71     		strb	r3, [r7, #7]
1135:Generated_Source\PSoC5/xbee_spi.c ****         tmpStatus &= ((uint8) ~xbee_spi_STS_SPI_IDLE);
 1392              		.loc 1 1135 0
 1393 003c FB79     		ldrb	r3, [r7, #7]
 1394 003e 23F01003 		bic	r3, r3, #16
 1395 0042 FB71     		strb	r3, [r7, #7]
1136:Generated_Source\PSoC5/xbee_spi.c **** 
1137:Generated_Source\PSoC5/xbee_spi.c ****         xbee_spi_swStatusTx = 0u;
 1396              		.loc 1 1137 0
 1397 0044 094B     		ldr	r3, .L87+12
 1398 0046 0022     		movs	r2, #0
 1399 0048 1A70     		strb	r2, [r3]
1138:Generated_Source\PSoC5/xbee_spi.c ****         xbee_spi_swStatusRx = 0u;
 1400              		.loc 1 1138 0
 1401 004a 064B     		ldr	r3, .L87+4
 1402 004c 0022     		movs	r2, #0
 1403 004e 1A70     		strb	r2, [r3]
1139:Generated_Source\PSoC5/xbee_spi.c **** 
1140:Generated_Source\PSoC5/xbee_spi.c ****         xbee_spi_EnableInt();
 1404              		.loc 1 1140 0
 1405 0050 FFF7FEFF 		bl	xbee_spi_EnableInt
1141:Generated_Source\PSoC5/xbee_spi.c **** 
1142:Generated_Source\PSoC5/xbee_spi.c ****     #else
1143:Generated_Source\PSoC5/xbee_spi.c **** 
1144:Generated_Source\PSoC5/xbee_spi.c ****         tmpStatus  = xbee_spi_RX_STATUS_REG;
1145:Generated_Source\PSoC5/xbee_spi.c ****         tmpStatus |= xbee_spi_TX_STATUS_REG;
1146:Generated_Source\PSoC5/xbee_spi.c ****         tmpStatus &= ((uint8) ~xbee_spi_STS_SPI_IDLE);
1147:Generated_Source\PSoC5/xbee_spi.c **** 
1148:Generated_Source\PSoC5/xbee_spi.c ****     #endif /* (xbee_spi_TX_SOFTWARE_BUF_ENABLED || xbee_spi_RX_SOFTWARE_BUF_ENABLED) */
1149:Generated_Source\PSoC5/xbee_spi.c **** 
1150:Generated_Source\PSoC5/xbee_spi.c ****     return(tmpStatus);
 1406              		.loc 1 1150 0
 1407 0054 FB79     		ldrb	r3, [r7, #7]	@ zero_extendqisi2
1151:Generated_Source\PSoC5/xbee_spi.c **** }
 1408              		.loc 1 1151 0
 1409 0056 1846     		mov	r0, r3
 1410 0058 0837     		adds	r7, r7, #8
ARM GAS  D:\Windows\AppData\Local\Temp\ccLjcK0k.s 			page 46


 1411              		.cfi_def_cfa_offset 8
 1412 005a BD46     		mov	sp, r7
 1413              		.cfi_def_cfa_register 13
 1414              		@ sp needed
 1415 005c 80BD     		pop	{r7, pc}
 1416              	.L88:
 1417 005e 00BF     		.align	2
 1418              	.L87:
 1419 0060 64640040 		.word	1073767524
 1420 0064 00000000 		.word	xbee_spi_swStatusRx
 1421 0068 66650040 		.word	1073767782
 1422 006c 00000000 		.word	xbee_spi_swStatusTx
 1423              		.cfi_endproc
 1424              	.LFE23:
 1425              		.size	xbee_spi_ReadStatus, .-xbee_spi_ReadStatus
 1426              		.text
 1427              	.Letext0:
 1428              		.file 2 "Generated_Source\\PSoC5\\cytypes.h"
 1429              		.section	.debug_info,"",%progbits
 1430              	.Ldebug_info0:
 1431 0000 7D040000 		.4byte	0x47d
 1432 0004 0400     		.2byte	0x4
 1433 0006 00000000 		.4byte	.Ldebug_abbrev0
 1434 000a 04       		.byte	0x4
 1435 000b 01       		.uleb128 0x1
 1436 000c FF010000 		.4byte	.LASF59
 1437 0010 01       		.byte	0x1
 1438 0011 B3020000 		.4byte	.LASF60
 1439 0015 BB000000 		.4byte	.LASF61
 1440 0019 00000000 		.4byte	.Ldebug_ranges0+0
 1441 001d 00000000 		.4byte	0
 1442 0021 00000000 		.4byte	.Ldebug_line0
 1443 0025 02       		.uleb128 0x2
 1444 0026 01       		.byte	0x1
 1445 0027 06       		.byte	0x6
 1446 0028 73040000 		.4byte	.LASF0
 1447 002c 02       		.uleb128 0x2
 1448 002d 01       		.byte	0x1
 1449 002e 08       		.byte	0x8
 1450 002f E1010000 		.4byte	.LASF1
 1451 0033 02       		.uleb128 0x2
 1452 0034 02       		.byte	0x2
 1453 0035 05       		.byte	0x5
 1454 0036 A9020000 		.4byte	.LASF2
 1455 003a 02       		.uleb128 0x2
 1456 003b 02       		.byte	0x2
 1457 003c 07       		.byte	0x7
 1458 003d 91000000 		.4byte	.LASF3
 1459 0041 02       		.uleb128 0x2
 1460 0042 04       		.byte	0x4
 1461 0043 05       		.byte	0x5
 1462 0044 34040000 		.4byte	.LASF4
 1463 0048 02       		.uleb128 0x2
 1464 0049 04       		.byte	0x4
 1465 004a 07       		.byte	0x7
 1466 004b 5C010000 		.4byte	.LASF5
 1467 004f 02       		.uleb128 0x2
ARM GAS  D:\Windows\AppData\Local\Temp\ccLjcK0k.s 			page 47


 1468 0050 08       		.byte	0x8
 1469 0051 05       		.byte	0x5
 1470 0052 7A030000 		.4byte	.LASF6
 1471 0056 02       		.uleb128 0x2
 1472 0057 08       		.byte	0x8
 1473 0058 07       		.byte	0x7
 1474 0059 12030000 		.4byte	.LASF7
 1475 005d 03       		.uleb128 0x3
 1476 005e 04       		.byte	0x4
 1477 005f 05       		.byte	0x5
 1478 0060 696E7400 		.ascii	"int\000"
 1479 0064 02       		.uleb128 0x2
 1480 0065 04       		.byte	0x4
 1481 0066 07       		.byte	0x7
 1482 0067 F2020000 		.4byte	.LASF8
 1483 006b 04       		.uleb128 0x4
 1484 006c 88010000 		.4byte	.LASF9
 1485 0070 02       		.byte	0x2
 1486 0071 9201     		.2byte	0x192
 1487 0073 2C000000 		.4byte	0x2c
 1488 0077 04       		.uleb128 0x4
 1489 0078 EB020000 		.4byte	.LASF10
 1490 007c 02       		.byte	0x2
 1491 007d 9401     		.2byte	0x194
 1492 007f 48000000 		.4byte	0x48
 1493 0083 02       		.uleb128 0x2
 1494 0084 04       		.byte	0x4
 1495 0085 04       		.byte	0x4
 1496 0086 25010000 		.4byte	.LASF11
 1497 008a 02       		.uleb128 0x2
 1498 008b 08       		.byte	0x8
 1499 008c 04       		.byte	0x4
 1500 008d 8D020000 		.4byte	.LASF12
 1501 0091 02       		.uleb128 0x2
 1502 0092 01       		.byte	0x1
 1503 0093 08       		.byte	0x8
 1504 0094 A5030000 		.4byte	.LASF13
 1505 0098 04       		.uleb128 0x4
 1506 0099 43010000 		.4byte	.LASF14
 1507 009d 02       		.byte	0x2
 1508 009e 3C02     		.2byte	0x23c
 1509 00a0 A4000000 		.4byte	0xa4
 1510 00a4 05       		.uleb128 0x5
 1511 00a5 6B000000 		.4byte	0x6b
 1512 00a9 04       		.uleb128 0x4
 1513 00aa 27000000 		.4byte	.LASF15
 1514 00ae 02       		.byte	0x2
 1515 00af 3E02     		.2byte	0x23e
 1516 00b1 B5000000 		.4byte	0xb5
 1517 00b5 05       		.uleb128 0x5
 1518 00b6 77000000 		.4byte	0x77
 1519 00ba 02       		.uleb128 0x2
 1520 00bb 04       		.byte	0x4
 1521 00bc 07       		.byte	0x7
 1522 00bd 88030000 		.4byte	.LASF16
 1523 00c1 06       		.uleb128 0x6
 1524 00c2 94020000 		.4byte	.LASF17
ARM GAS  D:\Windows\AppData\Local\Temp\ccLjcK0k.s 			page 48


 1525 00c6 01       		.byte	0x1
 1526 00c7 3F       		.byte	0x3f
 1527 00c8 00000000 		.4byte	.LFB0
 1528 00cc 6C000000 		.4byte	.LFE0-.LFB0
 1529 00d0 01       		.uleb128 0x1
 1530 00d1 9C       		.byte	0x9c
 1531 00d2 07       		.uleb128 0x7
 1532 00d3 EF010000 		.4byte	.LASF19
 1533 00d7 01       		.byte	0x1
 1534 00d8 78       		.byte	0x78
 1535 00d9 00000000 		.4byte	.LFB1
 1536 00dd 64000000 		.4byte	.LFE1-.LFB1
 1537 00e1 01       		.uleb128 0x1
 1538 00e2 9C       		.byte	0x9c
 1539 00e3 F6000000 		.4byte	0xf6
 1540 00e7 08       		.uleb128 0x8
 1541 00e8 00000000 		.4byte	.LASF21
 1542 00ec 01       		.byte	0x1
 1543 00ed 7A       		.byte	0x7a
 1544 00ee 6B000000 		.4byte	0x6b
 1545 00f2 02       		.uleb128 0x2
 1546 00f3 91       		.byte	0x91
 1547 00f4 77       		.sleb128 -9
 1548 00f5 00       		.byte	0
 1549 00f6 06       		.uleb128 0x6
 1550 00f7 A0010000 		.4byte	.LASF18
 1551 00fb 01       		.byte	0x1
 1552 00fc A3       		.byte	0xa3
 1553 00fd 00000000 		.4byte	.LFB2
 1554 0101 20000000 		.4byte	.LFE2-.LFB2
 1555 0105 01       		.uleb128 0x1
 1556 0106 9C       		.byte	0x9c
 1557 0107 07       		.uleb128 0x7
 1558 0108 DF030000 		.4byte	.LASF20
 1559 010c 01       		.byte	0x1
 1560 010d C0       		.byte	0xc0
 1561 010e 00000000 		.4byte	.LFB3
 1562 0112 50000000 		.4byte	.LFE3-.LFB3
 1563 0116 01       		.uleb128 0x1
 1564 0117 9C       		.byte	0x9c
 1565 0118 2B010000 		.4byte	0x12b
 1566 011c 08       		.uleb128 0x8
 1567 011d 00000000 		.4byte	.LASF21
 1568 0121 01       		.byte	0x1
 1569 0122 C2       		.byte	0xc2
 1570 0123 6B000000 		.4byte	0x6b
 1571 0127 02       		.uleb128 0x2
 1572 0128 91       		.byte	0x91
 1573 0129 77       		.sleb128 -9
 1574 012a 00       		.byte	0
 1575 012b 09       		.uleb128 0x9
 1576 012c 2D000000 		.4byte	.LASF22
 1577 0130 01       		.byte	0x1
 1578 0131 E3       		.byte	0xe3
 1579 0132 00000000 		.4byte	.LFB4
 1580 0136 18000000 		.4byte	.LFE4-.LFB4
 1581 013a 01       		.uleb128 0x1
ARM GAS  D:\Windows\AppData\Local\Temp\ccLjcK0k.s 			page 49


 1582 013b 9C       		.byte	0x9c
 1583 013c 09       		.uleb128 0x9
 1584 013d F8000000 		.4byte	.LASF23
 1585 0141 01       		.byte	0x1
 1586 0142 FC       		.byte	0xfc
 1587 0143 00000000 		.4byte	.LFB5
 1588 0147 0C000000 		.4byte	.LFE5-.LFB5
 1589 014b 01       		.uleb128 0x1
 1590 014c 9C       		.byte	0x9c
 1591 014d 0A       		.uleb128 0xa
 1592 014e 11000000 		.4byte	.LASF24
 1593 0152 01       		.byte	0x1
 1594 0153 1501     		.2byte	0x115
 1595 0155 00000000 		.4byte	.LFB6
 1596 0159 18000000 		.4byte	.LFE6-.LFB6
 1597 015d 01       		.uleb128 0x1
 1598 015e 9C       		.byte	0x9c
 1599 015f 0A       		.uleb128 0xa
 1600 0160 D5020000 		.4byte	.LASF25
 1601 0164 01       		.byte	0x1
 1602 0165 2E01     		.2byte	0x12e
 1603 0167 00000000 		.4byte	.LFB7
 1604 016b 0C000000 		.4byte	.LFE7-.LFB7
 1605 016f 01       		.uleb128 0x1
 1606 0170 9C       		.byte	0x9c
 1607 0171 0B       		.uleb128 0xb
 1608 0172 42030000 		.4byte	.LASF26
 1609 0176 01       		.byte	0x1
 1610 0177 4801     		.2byte	0x148
 1611 0179 00000000 		.4byte	.LFB8
 1612 017d 20000000 		.4byte	.LFE8-.LFB8
 1613 0181 01       		.uleb128 0x1
 1614 0182 9C       		.byte	0x9c
 1615 0183 97010000 		.4byte	0x197
 1616 0187 0C       		.uleb128 0xc
 1617 0188 A2020000 		.4byte	.LASF28
 1618 018c 01       		.byte	0x1
 1619 018d 4801     		.2byte	0x148
 1620 018f 6B000000 		.4byte	0x6b
 1621 0193 02       		.uleb128 0x2
 1622 0194 91       		.byte	0x91
 1623 0195 77       		.sleb128 -9
 1624 0196 00       		.byte	0
 1625 0197 0B       		.uleb128 0xb
 1626 0198 5E030000 		.4byte	.LASF27
 1627 019c 01       		.byte	0x1
 1628 019d 6001     		.2byte	0x160
 1629 019f 00000000 		.4byte	.LFB9
 1630 01a3 20000000 		.4byte	.LFE9-.LFB9
 1631 01a7 01       		.uleb128 0x1
 1632 01a8 9C       		.byte	0x9c
 1633 01a9 BD010000 		.4byte	0x1bd
 1634 01ad 0C       		.uleb128 0xc
 1635 01ae A2020000 		.4byte	.LASF28
 1636 01b2 01       		.byte	0x1
 1637 01b3 6001     		.2byte	0x160
 1638 01b5 6B000000 		.4byte	0x6b
ARM GAS  D:\Windows\AppData\Local\Temp\ccLjcK0k.s 			page 50


 1639 01b9 02       		.uleb128 0x2
 1640 01ba 91       		.byte	0x91
 1641 01bb 77       		.sleb128 -9
 1642 01bc 00       		.byte	0
 1643 01bd 0D       		.uleb128 0xd
 1644 01be 47040000 		.4byte	.LASF30
 1645 01c2 01       		.byte	0x1
 1646 01c3 8201     		.2byte	0x182
 1647 01c5 6B000000 		.4byte	0x6b
 1648 01c9 00000000 		.4byte	.LFB10
 1649 01cd 3C000000 		.4byte	.LFE10-.LFB10
 1650 01d1 01       		.uleb128 0x1
 1651 01d2 9C       		.byte	0x9c
 1652 01d3 E7010000 		.4byte	0x1e7
 1653 01d7 0E       		.uleb128 0xe
 1654 01d8 3D040000 		.4byte	.LASF29
 1655 01dc 01       		.byte	0x1
 1656 01dd 8401     		.2byte	0x184
 1657 01df 6B000000 		.4byte	0x6b
 1658 01e3 02       		.uleb128 0x2
 1659 01e4 91       		.byte	0x91
 1660 01e5 77       		.sleb128 -9
 1661 01e6 00       		.byte	0
 1662 01e7 0F       		.uleb128 0xf
 1663 01e8 42000000 		.4byte	.LASF31
 1664 01ec 01       		.byte	0x1
 1665 01ed B501     		.2byte	0x1b5
 1666 01ef 6B000000 		.4byte	0x6b
 1667 01f3 00000000 		.4byte	.LFB11
 1668 01f7 20000000 		.4byte	.LFE11-.LFB11
 1669 01fb 01       		.uleb128 0x1
 1670 01fc 9C       		.byte	0x9c
 1671 01fd 11020000 		.4byte	0x211
 1672 0201 0E       		.uleb128 0xe
 1673 0202 3D040000 		.4byte	.LASF29
 1674 0206 01       		.byte	0x1
 1675 0207 B701     		.2byte	0x1b7
 1676 0209 6B000000 		.4byte	0x6b
 1677 020d 02       		.uleb128 0x2
 1678 020e 91       		.byte	0x91
 1679 020f 77       		.sleb128 -9
 1680 0210 00       		.byte	0
 1681 0211 10       		.uleb128 0x10
 1682 0212 7F040000 		.4byte	.LASF32
 1683 0216 01       		.byte	0x1
 1684 0217 EE01     		.2byte	0x1ee
 1685 0219 00000000 		.4byte	.LFB12
 1686 021d 10010000 		.4byte	.LFE12-.LFB12
 1687 0221 01       		.uleb128 0x1
 1688 0222 9C       		.byte	0x9c
 1689 0223 55020000 		.4byte	0x255
 1690 0227 0C       		.uleb128 0xc
 1691 0228 71000000 		.4byte	.LASF33
 1692 022c 01       		.byte	0x1
 1693 022d EE01     		.2byte	0x1ee
 1694 022f 6B000000 		.4byte	0x6b
 1695 0233 02       		.uleb128 0x2
ARM GAS  D:\Windows\AppData\Local\Temp\ccLjcK0k.s 			page 51


 1696 0234 91       		.byte	0x91
 1697 0235 6F       		.sleb128 -17
 1698 0236 0E       		.uleb128 0xe
 1699 0237 D4030000 		.4byte	.LASF34
 1700 023b 01       		.byte	0x1
 1701 023c F201     		.2byte	0x1f2
 1702 023e 6B000000 		.4byte	0x6b
 1703 0242 02       		.uleb128 0x2
 1704 0243 91       		.byte	0x91
 1705 0244 76       		.sleb128 -10
 1706 0245 0E       		.uleb128 0xe
 1707 0246 32030000 		.4byte	.LASF35
 1708 024a 01       		.byte	0x1
 1709 024b F301     		.2byte	0x1f3
 1710 024d 6B000000 		.4byte	0x6b
 1711 0251 02       		.uleb128 0x2
 1712 0252 91       		.byte	0x91
 1713 0253 77       		.sleb128 -9
 1714 0254 00       		.byte	0
 1715 0255 0F       		.uleb128 0xf
 1716 0256 AA030000 		.4byte	.LASF36
 1717 025a 01       		.byte	0x1
 1718 025b 5A02     		.2byte	0x25a
 1719 025d 6B000000 		.4byte	0x6b
 1720 0261 00000000 		.4byte	.LFB13
 1721 0265 20000000 		.4byte	.LFE13-.LFB13
 1722 0269 01       		.uleb128 0x1
 1723 026a 9C       		.byte	0x9c
 1724 026b 7F020000 		.4byte	0x27f
 1725 026f 0E       		.uleb128 0xe
 1726 0270 1E010000 		.4byte	.LASF37
 1727 0274 01       		.byte	0x1
 1728 0275 5C02     		.2byte	0x25c
 1729 0277 6B000000 		.4byte	0x6b
 1730 027b 02       		.uleb128 0x2
 1731 027c 91       		.byte	0x91
 1732 027d 77       		.sleb128 -9
 1733 027e 00       		.byte	0
 1734 027f 0F       		.uleb128 0xf
 1735 0280 78000000 		.4byte	.LASF38
 1736 0284 01       		.byte	0x1
 1737 0285 9A02     		.2byte	0x29a
 1738 0287 6B000000 		.4byte	0x6b
 1739 028b 00000000 		.4byte	.LFB14
 1740 028f 30000000 		.4byte	.LFE14-.LFB14
 1741 0293 01       		.uleb128 0x1
 1742 0294 9C       		.byte	0x9c
 1743 0295 A9020000 		.4byte	0x2a9
 1744 0299 0E       		.uleb128 0xe
 1745 029a 3E010000 		.4byte	.LASF39
 1746 029e 01       		.byte	0x1
 1747 029f 9C02     		.2byte	0x29c
 1748 02a1 6B000000 		.4byte	0x6b
 1749 02a5 02       		.uleb128 0x2
 1750 02a6 91       		.byte	0x91
 1751 02a7 77       		.sleb128 -9
 1752 02a8 00       		.byte	0
ARM GAS  D:\Windows\AppData\Local\Temp\ccLjcK0k.s 			page 52


 1753 02a9 0D       		.uleb128 0xd
 1754 02aa 58000000 		.4byte	.LASF40
 1755 02ae 01       		.byte	0x1
 1756 02af D702     		.2byte	0x2d7
 1757 02b1 6B000000 		.4byte	0x6b
 1758 02b5 00000000 		.4byte	.LFB15
 1759 02b9 6C000000 		.4byte	.LFE15-.LFB15
 1760 02bd 01       		.uleb128 0x1
 1761 02be 9C       		.byte	0x9c
 1762 02bf D3020000 		.4byte	0x2d3
 1763 02c3 0E       		.uleb128 0xe
 1764 02c4 3E010000 		.4byte	.LASF39
 1765 02c8 01       		.byte	0x1
 1766 02c9 D902     		.2byte	0x2d9
 1767 02cb 6B000000 		.4byte	0x6b
 1768 02cf 02       		.uleb128 0x2
 1769 02d0 91       		.byte	0x91
 1770 02d1 77       		.sleb128 -9
 1771 02d2 00       		.byte	0
 1772 02d3 0A       		.uleb128 0xa
 1773 02d4 A4000000 		.4byte	.LASF41
 1774 02d8 01       		.byte	0x1
 1775 02d9 2603     		.2byte	0x326
 1776 02db 00000000 		.4byte	.LFB16
 1777 02df 28000000 		.4byte	.LFE16-.LFB16
 1778 02e3 01       		.uleb128 0x1
 1779 02e4 9C       		.byte	0x9c
 1780 02e5 10       		.uleb128 0x10
 1781 02e6 ED030000 		.4byte	.LASF42
 1782 02ea 01       		.byte	0x1
 1783 02eb 5D03     		.2byte	0x35d
 1784 02ed 00000000 		.4byte	.LFB17
 1785 02f1 7C000000 		.4byte	.LFE17-.LFB17
 1786 02f5 01       		.uleb128 0x1
 1787 02f6 9C       		.byte	0x9c
 1788 02f7 0B030000 		.4byte	0x30b
 1789 02fb 0E       		.uleb128 0xe
 1790 02fc 00000000 		.4byte	.LASF21
 1791 0300 01       		.byte	0x1
 1792 0301 5F03     		.2byte	0x35f
 1793 0303 6B000000 		.4byte	0x6b
 1794 0307 02       		.uleb128 0x2
 1795 0308 91       		.byte	0x91
 1796 0309 77       		.sleb128 -9
 1797 030a 00       		.byte	0
 1798 030b 10       		.uleb128 0x10
 1799 030c 0B040000 		.4byte	.LASF43
 1800 0310 01       		.byte	0x1
 1801 0311 C203     		.2byte	0x3c2
 1802 0313 00000000 		.4byte	.LFB18
 1803 0317 38000000 		.4byte	.LFE18-.LFB18
 1804 031b 01       		.uleb128 0x1
 1805 031c 9C       		.byte	0x9c
 1806 031d 4F030000 		.4byte	0x34f
 1807 0321 0C       		.uleb128 0xc
 1808 0322 04040000 		.4byte	.LASF44
 1809 0326 01       		.byte	0x1
ARM GAS  D:\Windows\AppData\Local\Temp\ccLjcK0k.s 			page 53


 1810 0327 C203     		.2byte	0x3c2
 1811 0329 4F030000 		.4byte	0x34f
 1812 032d 02       		.uleb128 0x2
 1813 032e 91       		.byte	0x91
 1814 032f 6C       		.sleb128 -20
 1815 0330 0C       		.uleb128 0xc
 1816 0331 C3010000 		.4byte	.LASF45
 1817 0335 01       		.byte	0x1
 1818 0336 C203     		.2byte	0x3c2
 1819 0338 6B000000 		.4byte	0x6b
 1820 033c 02       		.uleb128 0x2
 1821 033d 91       		.byte	0x91
 1822 033e 6B       		.sleb128 -21
 1823 033f 0E       		.uleb128 0xe
 1824 0340 29030000 		.4byte	.LASF46
 1825 0344 01       		.byte	0x1
 1826 0345 C503     		.2byte	0x3c5
 1827 0347 6B000000 		.4byte	0x6b
 1828 034b 02       		.uleb128 0x2
 1829 034c 91       		.byte	0x91
 1830 034d 77       		.sleb128 -9
 1831 034e 00       		.byte	0
 1832 034f 11       		.uleb128 0x11
 1833 0350 04       		.byte	0x4
 1834 0351 55030000 		.4byte	0x355
 1835 0355 12       		.uleb128 0x12
 1836 0356 6B000000 		.4byte	0x6b
 1837 035a 10       		.uleb128 0x10
 1838 035b FF020000 		.4byte	.LASF47
 1839 035f 01       		.byte	0x1
 1840 0360 E303     		.2byte	0x3e3
 1841 0362 00000000 		.4byte	.LFB19
 1842 0366 5C000000 		.4byte	.LFE19-.LFB19
 1843 036a 01       		.uleb128 0x1
 1844 036b 9C       		.byte	0x9c
 1845 036c 80030000 		.4byte	0x380
 1846 0370 0E       		.uleb128 0xe
 1847 0371 00000000 		.4byte	.LASF21
 1848 0375 01       		.byte	0x1
 1849 0376 E503     		.2byte	0x3e5
 1850 0378 6B000000 		.4byte	0x6b
 1851 037c 02       		.uleb128 0x2
 1852 037d 91       		.byte	0x91
 1853 037e 77       		.sleb128 -9
 1854 037f 00       		.byte	0
 1855 0380 13       		.uleb128 0x13
 1856 0381 2B010000 		.4byte	.LASF48
 1857 0385 01       		.byte	0x1
 1858 0386 1104     		.2byte	0x411
 1859 0388 00000000 		.4byte	.LFB20
 1860 038c 0E000000 		.4byte	.LFE20-.LFB20
 1861 0390 01       		.uleb128 0x1
 1862 0391 9C       		.byte	0x9c
 1863 0392 13       		.uleb128 0x13
 1864 0393 AF010000 		.4byte	.LASF49
 1865 0397 01       		.byte	0x1
 1866 0398 2904     		.2byte	0x429
ARM GAS  D:\Windows\AppData\Local\Temp\ccLjcK0k.s 			page 54


 1867 039a 00000000 		.4byte	.LFB21
 1868 039e 0E000000 		.4byte	.LFE21-.LFB21
 1869 03a2 01       		.uleb128 0x1
 1870 03a3 9C       		.byte	0x9c
 1871 03a4 0B       		.uleb128 0xb
 1872 03a5 6E010000 		.4byte	.LASF50
 1873 03a9 01       		.byte	0x1
 1874 03aa 4204     		.2byte	0x442
 1875 03ac 00000000 		.4byte	.LFB22
 1876 03b0 30000000 		.4byte	.LFE22-.LFB22
 1877 03b4 01       		.uleb128 0x1
 1878 03b5 9C       		.byte	0x9c
 1879 03b6 CA030000 		.4byte	0x3ca
 1880 03ba 0C       		.uleb128 0xc
 1881 03bb A2020000 		.4byte	.LASF28
 1882 03bf 01       		.byte	0x1
 1883 03c0 4204     		.2byte	0x442
 1884 03c2 6B000000 		.4byte	0x6b
 1885 03c6 02       		.uleb128 0x2
 1886 03c7 91       		.byte	0x91
 1887 03c8 77       		.sleb128 -9
 1888 03c9 00       		.byte	0
 1889 03ca 0D       		.uleb128 0xd
 1890 03cb CD010000 		.4byte	.LASF51
 1891 03cf 01       		.byte	0x1
 1892 03d0 6504     		.2byte	0x465
 1893 03d2 6B000000 		.4byte	0x6b
 1894 03d6 00000000 		.4byte	.LFB23
 1895 03da 70000000 		.4byte	.LFE23-.LFB23
 1896 03de 01       		.uleb128 0x1
 1897 03df 9C       		.byte	0x9c
 1898 03e0 F4030000 		.4byte	0x3f4
 1899 03e4 0E       		.uleb128 0xe
 1900 03e5 3D040000 		.4byte	.LASF29
 1901 03e9 01       		.byte	0x1
 1902 03ea 6704     		.2byte	0x467
 1903 03ec 6B000000 		.4byte	0x6b
 1904 03f0 02       		.uleb128 0x2
 1905 03f1 91       		.byte	0x91
 1906 03f2 77       		.sleb128 -9
 1907 03f3 00       		.byte	0
 1908 03f4 14       		.uleb128 0x14
 1909 03f5 0D010000 		.4byte	.LASF52
 1910 03f9 01       		.byte	0x1
 1911 03fa 22       		.byte	0x22
 1912 03fb 6B000000 		.4byte	0x6b
 1913 03ff 05       		.uleb128 0x5
 1914 0400 03       		.byte	0x3
 1915 0401 00000000 		.4byte	xbee_spi_initVar
 1916 0405 14       		.uleb128 0x14
 1917 0406 91030000 		.4byte	.LASF53
 1918 040a 01       		.byte	0x1
 1919 040b 24       		.byte	0x24
 1920 040c A4000000 		.4byte	0xa4
 1921 0410 05       		.uleb128 0x5
 1922 0411 03       		.byte	0x3
 1923 0412 00000000 		.4byte	xbee_spi_swStatusTx
ARM GAS  D:\Windows\AppData\Local\Temp\ccLjcK0k.s 			page 55


 1924 0416 14       		.uleb128 0x14
 1925 0417 48010000 		.4byte	.LASF54
 1926 041b 01       		.byte	0x1
 1927 041c 25       		.byte	0x25
 1928 041d A4000000 		.4byte	0xa4
 1929 0421 05       		.uleb128 0x5
 1930 0422 03       		.byte	0x3
 1931 0423 00000000 		.4byte	xbee_spi_swStatusRx
 1932 0427 15       		.uleb128 0x15
 1933 0428 6B000000 		.4byte	0x6b
 1934 042c 37040000 		.4byte	0x437
 1935 0430 16       		.uleb128 0x16
 1936 0431 BA000000 		.4byte	0xba
 1937 0435 3F       		.byte	0x3f
 1938 0436 00       		.byte	0
 1939 0437 14       		.uleb128 0x14
 1940 0438 8E010000 		.4byte	.LASF55
 1941 043c 01       		.byte	0x1
 1942 043d 15       		.byte	0x15
 1943 043e 48040000 		.4byte	0x448
 1944 0442 05       		.uleb128 0x5
 1945 0443 03       		.byte	0x3
 1946 0444 00000000 		.4byte	xbee_spi_txBuffer
 1947 0448 05       		.uleb128 0x5
 1948 0449 27040000 		.4byte	0x427
 1949 044d 14       		.uleb128 0x14
 1950 044e 5D040000 		.4byte	.LASF56
 1951 0452 01       		.byte	0x1
 1952 0453 17       		.byte	0x17
 1953 0454 A4000000 		.4byte	0xa4
 1954 0458 05       		.uleb128 0x5
 1955 0459 03       		.byte	0x3
 1956 045a 00000000 		.4byte	xbee_spi_txBufferRead
 1957 045e 14       		.uleb128 0x14
 1958 045f 1D040000 		.4byte	.LASF57
 1959 0463 01       		.byte	0x1
 1960 0464 18       		.byte	0x18
 1961 0465 A4000000 		.4byte	0xa4
 1962 0469 05       		.uleb128 0x5
 1963 046a 03       		.byte	0x3
 1964 046b 00000000 		.4byte	xbee_spi_txBufferWrite
 1965 046f 14       		.uleb128 0x14
 1966 0470 BE030000 		.4byte	.LASF58
 1967 0474 01       		.byte	0x1
 1968 0475 16       		.byte	0x16
 1969 0476 A4000000 		.4byte	0xa4
 1970 047a 05       		.uleb128 0x5
 1971 047b 03       		.byte	0x3
 1972 047c 00000000 		.4byte	xbee_spi_txBufferFull
 1973 0480 00       		.byte	0
 1974              		.section	.debug_abbrev,"",%progbits
 1975              	.Ldebug_abbrev0:
 1976 0000 01       		.uleb128 0x1
 1977 0001 11       		.uleb128 0x11
 1978 0002 01       		.byte	0x1
 1979 0003 25       		.uleb128 0x25
 1980 0004 0E       		.uleb128 0xe
ARM GAS  D:\Windows\AppData\Local\Temp\ccLjcK0k.s 			page 56


 1981 0005 13       		.uleb128 0x13
 1982 0006 0B       		.uleb128 0xb
 1983 0007 03       		.uleb128 0x3
 1984 0008 0E       		.uleb128 0xe
 1985 0009 1B       		.uleb128 0x1b
 1986 000a 0E       		.uleb128 0xe
 1987 000b 55       		.uleb128 0x55
 1988 000c 17       		.uleb128 0x17
 1989 000d 11       		.uleb128 0x11
 1990 000e 01       		.uleb128 0x1
 1991 000f 10       		.uleb128 0x10
 1992 0010 17       		.uleb128 0x17
 1993 0011 00       		.byte	0
 1994 0012 00       		.byte	0
 1995 0013 02       		.uleb128 0x2
 1996 0014 24       		.uleb128 0x24
 1997 0015 00       		.byte	0
 1998 0016 0B       		.uleb128 0xb
 1999 0017 0B       		.uleb128 0xb
 2000 0018 3E       		.uleb128 0x3e
 2001 0019 0B       		.uleb128 0xb
 2002 001a 03       		.uleb128 0x3
 2003 001b 0E       		.uleb128 0xe
 2004 001c 00       		.byte	0
 2005 001d 00       		.byte	0
 2006 001e 03       		.uleb128 0x3
 2007 001f 24       		.uleb128 0x24
 2008 0020 00       		.byte	0
 2009 0021 0B       		.uleb128 0xb
 2010 0022 0B       		.uleb128 0xb
 2011 0023 3E       		.uleb128 0x3e
 2012 0024 0B       		.uleb128 0xb
 2013 0025 03       		.uleb128 0x3
 2014 0026 08       		.uleb128 0x8
 2015 0027 00       		.byte	0
 2016 0028 00       		.byte	0
 2017 0029 04       		.uleb128 0x4
 2018 002a 16       		.uleb128 0x16
 2019 002b 00       		.byte	0
 2020 002c 03       		.uleb128 0x3
 2021 002d 0E       		.uleb128 0xe
 2022 002e 3A       		.uleb128 0x3a
 2023 002f 0B       		.uleb128 0xb
 2024 0030 3B       		.uleb128 0x3b
 2025 0031 05       		.uleb128 0x5
 2026 0032 49       		.uleb128 0x49
 2027 0033 13       		.uleb128 0x13
 2028 0034 00       		.byte	0
 2029 0035 00       		.byte	0
 2030 0036 05       		.uleb128 0x5
 2031 0037 35       		.uleb128 0x35
 2032 0038 00       		.byte	0
 2033 0039 49       		.uleb128 0x49
 2034 003a 13       		.uleb128 0x13
 2035 003b 00       		.byte	0
 2036 003c 00       		.byte	0
 2037 003d 06       		.uleb128 0x6
ARM GAS  D:\Windows\AppData\Local\Temp\ccLjcK0k.s 			page 57


 2038 003e 2E       		.uleb128 0x2e
 2039 003f 00       		.byte	0
 2040 0040 3F       		.uleb128 0x3f
 2041 0041 19       		.uleb128 0x19
 2042 0042 03       		.uleb128 0x3
 2043 0043 0E       		.uleb128 0xe
 2044 0044 3A       		.uleb128 0x3a
 2045 0045 0B       		.uleb128 0xb
 2046 0046 3B       		.uleb128 0x3b
 2047 0047 0B       		.uleb128 0xb
 2048 0048 27       		.uleb128 0x27
 2049 0049 19       		.uleb128 0x19
 2050 004a 11       		.uleb128 0x11
 2051 004b 01       		.uleb128 0x1
 2052 004c 12       		.uleb128 0x12
 2053 004d 06       		.uleb128 0x6
 2054 004e 40       		.uleb128 0x40
 2055 004f 18       		.uleb128 0x18
 2056 0050 9642     		.uleb128 0x2116
 2057 0052 19       		.uleb128 0x19
 2058 0053 00       		.byte	0
 2059 0054 00       		.byte	0
 2060 0055 07       		.uleb128 0x7
 2061 0056 2E       		.uleb128 0x2e
 2062 0057 01       		.byte	0x1
 2063 0058 3F       		.uleb128 0x3f
 2064 0059 19       		.uleb128 0x19
 2065 005a 03       		.uleb128 0x3
 2066 005b 0E       		.uleb128 0xe
 2067 005c 3A       		.uleb128 0x3a
 2068 005d 0B       		.uleb128 0xb
 2069 005e 3B       		.uleb128 0x3b
 2070 005f 0B       		.uleb128 0xb
 2071 0060 27       		.uleb128 0x27
 2072 0061 19       		.uleb128 0x19
 2073 0062 11       		.uleb128 0x11
 2074 0063 01       		.uleb128 0x1
 2075 0064 12       		.uleb128 0x12
 2076 0065 06       		.uleb128 0x6
 2077 0066 40       		.uleb128 0x40
 2078 0067 18       		.uleb128 0x18
 2079 0068 9642     		.uleb128 0x2116
 2080 006a 19       		.uleb128 0x19
 2081 006b 01       		.uleb128 0x1
 2082 006c 13       		.uleb128 0x13
 2083 006d 00       		.byte	0
 2084 006e 00       		.byte	0
 2085 006f 08       		.uleb128 0x8
 2086 0070 34       		.uleb128 0x34
 2087 0071 00       		.byte	0
 2088 0072 03       		.uleb128 0x3
 2089 0073 0E       		.uleb128 0xe
 2090 0074 3A       		.uleb128 0x3a
 2091 0075 0B       		.uleb128 0xb
 2092 0076 3B       		.uleb128 0x3b
 2093 0077 0B       		.uleb128 0xb
 2094 0078 49       		.uleb128 0x49
ARM GAS  D:\Windows\AppData\Local\Temp\ccLjcK0k.s 			page 58


 2095 0079 13       		.uleb128 0x13
 2096 007a 02       		.uleb128 0x2
 2097 007b 18       		.uleb128 0x18
 2098 007c 00       		.byte	0
 2099 007d 00       		.byte	0
 2100 007e 09       		.uleb128 0x9
 2101 007f 2E       		.uleb128 0x2e
 2102 0080 00       		.byte	0
 2103 0081 3F       		.uleb128 0x3f
 2104 0082 19       		.uleb128 0x19
 2105 0083 03       		.uleb128 0x3
 2106 0084 0E       		.uleb128 0xe
 2107 0085 3A       		.uleb128 0x3a
 2108 0086 0B       		.uleb128 0xb
 2109 0087 3B       		.uleb128 0x3b
 2110 0088 0B       		.uleb128 0xb
 2111 0089 27       		.uleb128 0x27
 2112 008a 19       		.uleb128 0x19
 2113 008b 11       		.uleb128 0x11
 2114 008c 01       		.uleb128 0x1
 2115 008d 12       		.uleb128 0x12
 2116 008e 06       		.uleb128 0x6
 2117 008f 40       		.uleb128 0x40
 2118 0090 18       		.uleb128 0x18
 2119 0091 9742     		.uleb128 0x2117
 2120 0093 19       		.uleb128 0x19
 2121 0094 00       		.byte	0
 2122 0095 00       		.byte	0
 2123 0096 0A       		.uleb128 0xa
 2124 0097 2E       		.uleb128 0x2e
 2125 0098 00       		.byte	0
 2126 0099 3F       		.uleb128 0x3f
 2127 009a 19       		.uleb128 0x19
 2128 009b 03       		.uleb128 0x3
 2129 009c 0E       		.uleb128 0xe
 2130 009d 3A       		.uleb128 0x3a
 2131 009e 0B       		.uleb128 0xb
 2132 009f 3B       		.uleb128 0x3b
 2133 00a0 05       		.uleb128 0x5
 2134 00a1 27       		.uleb128 0x27
 2135 00a2 19       		.uleb128 0x19
 2136 00a3 11       		.uleb128 0x11
 2137 00a4 01       		.uleb128 0x1
 2138 00a5 12       		.uleb128 0x12
 2139 00a6 06       		.uleb128 0x6
 2140 00a7 40       		.uleb128 0x40
 2141 00a8 18       		.uleb128 0x18
 2142 00a9 9742     		.uleb128 0x2117
 2143 00ab 19       		.uleb128 0x19
 2144 00ac 00       		.byte	0
 2145 00ad 00       		.byte	0
 2146 00ae 0B       		.uleb128 0xb
 2147 00af 2E       		.uleb128 0x2e
 2148 00b0 01       		.byte	0x1
 2149 00b1 3F       		.uleb128 0x3f
 2150 00b2 19       		.uleb128 0x19
 2151 00b3 03       		.uleb128 0x3
ARM GAS  D:\Windows\AppData\Local\Temp\ccLjcK0k.s 			page 59


 2152 00b4 0E       		.uleb128 0xe
 2153 00b5 3A       		.uleb128 0x3a
 2154 00b6 0B       		.uleb128 0xb
 2155 00b7 3B       		.uleb128 0x3b
 2156 00b8 05       		.uleb128 0x5
 2157 00b9 27       		.uleb128 0x27
 2158 00ba 19       		.uleb128 0x19
 2159 00bb 11       		.uleb128 0x11
 2160 00bc 01       		.uleb128 0x1
 2161 00bd 12       		.uleb128 0x12
 2162 00be 06       		.uleb128 0x6
 2163 00bf 40       		.uleb128 0x40
 2164 00c0 18       		.uleb128 0x18
 2165 00c1 9742     		.uleb128 0x2117
 2166 00c3 19       		.uleb128 0x19
 2167 00c4 01       		.uleb128 0x1
 2168 00c5 13       		.uleb128 0x13
 2169 00c6 00       		.byte	0
 2170 00c7 00       		.byte	0
 2171 00c8 0C       		.uleb128 0xc
 2172 00c9 05       		.uleb128 0x5
 2173 00ca 00       		.byte	0
 2174 00cb 03       		.uleb128 0x3
 2175 00cc 0E       		.uleb128 0xe
 2176 00cd 3A       		.uleb128 0x3a
 2177 00ce 0B       		.uleb128 0xb
 2178 00cf 3B       		.uleb128 0x3b
 2179 00d0 05       		.uleb128 0x5
 2180 00d1 49       		.uleb128 0x49
 2181 00d2 13       		.uleb128 0x13
 2182 00d3 02       		.uleb128 0x2
 2183 00d4 18       		.uleb128 0x18
 2184 00d5 00       		.byte	0
 2185 00d6 00       		.byte	0
 2186 00d7 0D       		.uleb128 0xd
 2187 00d8 2E       		.uleb128 0x2e
 2188 00d9 01       		.byte	0x1
 2189 00da 3F       		.uleb128 0x3f
 2190 00db 19       		.uleb128 0x19
 2191 00dc 03       		.uleb128 0x3
 2192 00dd 0E       		.uleb128 0xe
 2193 00de 3A       		.uleb128 0x3a
 2194 00df 0B       		.uleb128 0xb
 2195 00e0 3B       		.uleb128 0x3b
 2196 00e1 05       		.uleb128 0x5
 2197 00e2 27       		.uleb128 0x27
 2198 00e3 19       		.uleb128 0x19
 2199 00e4 49       		.uleb128 0x49
 2200 00e5 13       		.uleb128 0x13
 2201 00e6 11       		.uleb128 0x11
 2202 00e7 01       		.uleb128 0x1
 2203 00e8 12       		.uleb128 0x12
 2204 00e9 06       		.uleb128 0x6
 2205 00ea 40       		.uleb128 0x40
 2206 00eb 18       		.uleb128 0x18
 2207 00ec 9642     		.uleb128 0x2116
 2208 00ee 19       		.uleb128 0x19
ARM GAS  D:\Windows\AppData\Local\Temp\ccLjcK0k.s 			page 60


 2209 00ef 01       		.uleb128 0x1
 2210 00f0 13       		.uleb128 0x13
 2211 00f1 00       		.byte	0
 2212 00f2 00       		.byte	0
 2213 00f3 0E       		.uleb128 0xe
 2214 00f4 34       		.uleb128 0x34
 2215 00f5 00       		.byte	0
 2216 00f6 03       		.uleb128 0x3
 2217 00f7 0E       		.uleb128 0xe
 2218 00f8 3A       		.uleb128 0x3a
 2219 00f9 0B       		.uleb128 0xb
 2220 00fa 3B       		.uleb128 0x3b
 2221 00fb 05       		.uleb128 0x5
 2222 00fc 49       		.uleb128 0x49
 2223 00fd 13       		.uleb128 0x13
 2224 00fe 02       		.uleb128 0x2
 2225 00ff 18       		.uleb128 0x18
 2226 0100 00       		.byte	0
 2227 0101 00       		.byte	0
 2228 0102 0F       		.uleb128 0xf
 2229 0103 2E       		.uleb128 0x2e
 2230 0104 01       		.byte	0x1
 2231 0105 3F       		.uleb128 0x3f
 2232 0106 19       		.uleb128 0x19
 2233 0107 03       		.uleb128 0x3
 2234 0108 0E       		.uleb128 0xe
 2235 0109 3A       		.uleb128 0x3a
 2236 010a 0B       		.uleb128 0xb
 2237 010b 3B       		.uleb128 0x3b
 2238 010c 05       		.uleb128 0x5
 2239 010d 27       		.uleb128 0x27
 2240 010e 19       		.uleb128 0x19
 2241 010f 49       		.uleb128 0x49
 2242 0110 13       		.uleb128 0x13
 2243 0111 11       		.uleb128 0x11
 2244 0112 01       		.uleb128 0x1
 2245 0113 12       		.uleb128 0x12
 2246 0114 06       		.uleb128 0x6
 2247 0115 40       		.uleb128 0x40
 2248 0116 18       		.uleb128 0x18
 2249 0117 9742     		.uleb128 0x2117
 2250 0119 19       		.uleb128 0x19
 2251 011a 01       		.uleb128 0x1
 2252 011b 13       		.uleb128 0x13
 2253 011c 00       		.byte	0
 2254 011d 00       		.byte	0
 2255 011e 10       		.uleb128 0x10
 2256 011f 2E       		.uleb128 0x2e
 2257 0120 01       		.byte	0x1
 2258 0121 3F       		.uleb128 0x3f
 2259 0122 19       		.uleb128 0x19
 2260 0123 03       		.uleb128 0x3
 2261 0124 0E       		.uleb128 0xe
 2262 0125 3A       		.uleb128 0x3a
 2263 0126 0B       		.uleb128 0xb
 2264 0127 3B       		.uleb128 0x3b
 2265 0128 05       		.uleb128 0x5
ARM GAS  D:\Windows\AppData\Local\Temp\ccLjcK0k.s 			page 61


 2266 0129 27       		.uleb128 0x27
 2267 012a 19       		.uleb128 0x19
 2268 012b 11       		.uleb128 0x11
 2269 012c 01       		.uleb128 0x1
 2270 012d 12       		.uleb128 0x12
 2271 012e 06       		.uleb128 0x6
 2272 012f 40       		.uleb128 0x40
 2273 0130 18       		.uleb128 0x18
 2274 0131 9642     		.uleb128 0x2116
 2275 0133 19       		.uleb128 0x19
 2276 0134 01       		.uleb128 0x1
 2277 0135 13       		.uleb128 0x13
 2278 0136 00       		.byte	0
 2279 0137 00       		.byte	0
 2280 0138 11       		.uleb128 0x11
 2281 0139 0F       		.uleb128 0xf
 2282 013a 00       		.byte	0
 2283 013b 0B       		.uleb128 0xb
 2284 013c 0B       		.uleb128 0xb
 2285 013d 49       		.uleb128 0x49
 2286 013e 13       		.uleb128 0x13
 2287 013f 00       		.byte	0
 2288 0140 00       		.byte	0
 2289 0141 12       		.uleb128 0x12
 2290 0142 26       		.uleb128 0x26
 2291 0143 00       		.byte	0
 2292 0144 49       		.uleb128 0x49
 2293 0145 13       		.uleb128 0x13
 2294 0146 00       		.byte	0
 2295 0147 00       		.byte	0
 2296 0148 13       		.uleb128 0x13
 2297 0149 2E       		.uleb128 0x2e
 2298 014a 00       		.byte	0
 2299 014b 3F       		.uleb128 0x3f
 2300 014c 19       		.uleb128 0x19
 2301 014d 03       		.uleb128 0x3
 2302 014e 0E       		.uleb128 0xe
 2303 014f 3A       		.uleb128 0x3a
 2304 0150 0B       		.uleb128 0xb
 2305 0151 3B       		.uleb128 0x3b
 2306 0152 05       		.uleb128 0x5
 2307 0153 27       		.uleb128 0x27
 2308 0154 19       		.uleb128 0x19
 2309 0155 11       		.uleb128 0x11
 2310 0156 01       		.uleb128 0x1
 2311 0157 12       		.uleb128 0x12
 2312 0158 06       		.uleb128 0x6
 2313 0159 40       		.uleb128 0x40
 2314 015a 18       		.uleb128 0x18
 2315 015b 9642     		.uleb128 0x2116
 2316 015d 19       		.uleb128 0x19
 2317 015e 00       		.byte	0
 2318 015f 00       		.byte	0
 2319 0160 14       		.uleb128 0x14
 2320 0161 34       		.uleb128 0x34
 2321 0162 00       		.byte	0
 2322 0163 03       		.uleb128 0x3
ARM GAS  D:\Windows\AppData\Local\Temp\ccLjcK0k.s 			page 62


 2323 0164 0E       		.uleb128 0xe
 2324 0165 3A       		.uleb128 0x3a
 2325 0166 0B       		.uleb128 0xb
 2326 0167 3B       		.uleb128 0x3b
 2327 0168 0B       		.uleb128 0xb
 2328 0169 49       		.uleb128 0x49
 2329 016a 13       		.uleb128 0x13
 2330 016b 3F       		.uleb128 0x3f
 2331 016c 19       		.uleb128 0x19
 2332 016d 02       		.uleb128 0x2
 2333 016e 18       		.uleb128 0x18
 2334 016f 00       		.byte	0
 2335 0170 00       		.byte	0
 2336 0171 15       		.uleb128 0x15
 2337 0172 01       		.uleb128 0x1
 2338 0173 01       		.byte	0x1
 2339 0174 49       		.uleb128 0x49
 2340 0175 13       		.uleb128 0x13
 2341 0176 01       		.uleb128 0x1
 2342 0177 13       		.uleb128 0x13
 2343 0178 00       		.byte	0
 2344 0179 00       		.byte	0
 2345 017a 16       		.uleb128 0x16
 2346 017b 21       		.uleb128 0x21
 2347 017c 00       		.byte	0
 2348 017d 49       		.uleb128 0x49
 2349 017e 13       		.uleb128 0x13
 2350 017f 2F       		.uleb128 0x2f
 2351 0180 0B       		.uleb128 0xb
 2352 0181 00       		.byte	0
 2353 0182 00       		.byte	0
 2354 0183 00       		.byte	0
 2355              		.section	.debug_aranges,"",%progbits
 2356 0000 D4000000 		.4byte	0xd4
 2357 0004 0200     		.2byte	0x2
 2358 0006 00000000 		.4byte	.Ldebug_info0
 2359 000a 04       		.byte	0x4
 2360 000b 00       		.byte	0
 2361 000c 0000     		.2byte	0
 2362 000e 0000     		.2byte	0
 2363 0010 00000000 		.4byte	.LFB0
 2364 0014 6C000000 		.4byte	.LFE0-.LFB0
 2365 0018 00000000 		.4byte	.LFB1
 2366 001c 64000000 		.4byte	.LFE1-.LFB1
 2367 0020 00000000 		.4byte	.LFB2
 2368 0024 20000000 		.4byte	.LFE2-.LFB2
 2369 0028 00000000 		.4byte	.LFB3
 2370 002c 50000000 		.4byte	.LFE3-.LFB3
 2371 0030 00000000 		.4byte	.LFB4
 2372 0034 18000000 		.4byte	.LFE4-.LFB4
 2373 0038 00000000 		.4byte	.LFB5
 2374 003c 0C000000 		.4byte	.LFE5-.LFB5
 2375 0040 00000000 		.4byte	.LFB6
 2376 0044 18000000 		.4byte	.LFE6-.LFB6
 2377 0048 00000000 		.4byte	.LFB7
 2378 004c 0C000000 		.4byte	.LFE7-.LFB7
 2379 0050 00000000 		.4byte	.LFB8
ARM GAS  D:\Windows\AppData\Local\Temp\ccLjcK0k.s 			page 63


 2380 0054 20000000 		.4byte	.LFE8-.LFB8
 2381 0058 00000000 		.4byte	.LFB9
 2382 005c 20000000 		.4byte	.LFE9-.LFB9
 2383 0060 00000000 		.4byte	.LFB10
 2384 0064 3C000000 		.4byte	.LFE10-.LFB10
 2385 0068 00000000 		.4byte	.LFB11
 2386 006c 20000000 		.4byte	.LFE11-.LFB11
 2387 0070 00000000 		.4byte	.LFB12
 2388 0074 10010000 		.4byte	.LFE12-.LFB12
 2389 0078 00000000 		.4byte	.LFB13
 2390 007c 20000000 		.4byte	.LFE13-.LFB13
 2391 0080 00000000 		.4byte	.LFB14
 2392 0084 30000000 		.4byte	.LFE14-.LFB14
 2393 0088 00000000 		.4byte	.LFB15
 2394 008c 6C000000 		.4byte	.LFE15-.LFB15
 2395 0090 00000000 		.4byte	.LFB16
 2396 0094 28000000 		.4byte	.LFE16-.LFB16
 2397 0098 00000000 		.4byte	.LFB17
 2398 009c 7C000000 		.4byte	.LFE17-.LFB17
 2399 00a0 00000000 		.4byte	.LFB18
 2400 00a4 38000000 		.4byte	.LFE18-.LFB18
 2401 00a8 00000000 		.4byte	.LFB19
 2402 00ac 5C000000 		.4byte	.LFE19-.LFB19
 2403 00b0 00000000 		.4byte	.LFB20
 2404 00b4 0E000000 		.4byte	.LFE20-.LFB20
 2405 00b8 00000000 		.4byte	.LFB21
 2406 00bc 0E000000 		.4byte	.LFE21-.LFB21
 2407 00c0 00000000 		.4byte	.LFB22
 2408 00c4 30000000 		.4byte	.LFE22-.LFB22
 2409 00c8 00000000 		.4byte	.LFB23
 2410 00cc 70000000 		.4byte	.LFE23-.LFB23
 2411 00d0 00000000 		.4byte	0
 2412 00d4 00000000 		.4byte	0
 2413              		.section	.debug_ranges,"",%progbits
 2414              	.Ldebug_ranges0:
 2415 0000 00000000 		.4byte	.LFB0
 2416 0004 6C000000 		.4byte	.LFE0
 2417 0008 00000000 		.4byte	.LFB1
 2418 000c 64000000 		.4byte	.LFE1
 2419 0010 00000000 		.4byte	.LFB2
 2420 0014 20000000 		.4byte	.LFE2
 2421 0018 00000000 		.4byte	.LFB3
 2422 001c 50000000 		.4byte	.LFE3
 2423 0020 00000000 		.4byte	.LFB4
 2424 0024 18000000 		.4byte	.LFE4
 2425 0028 00000000 		.4byte	.LFB5
 2426 002c 0C000000 		.4byte	.LFE5
 2427 0030 00000000 		.4byte	.LFB6
 2428 0034 18000000 		.4byte	.LFE6
 2429 0038 00000000 		.4byte	.LFB7
 2430 003c 0C000000 		.4byte	.LFE7
 2431 0040 00000000 		.4byte	.LFB8
 2432 0044 20000000 		.4byte	.LFE8
 2433 0048 00000000 		.4byte	.LFB9
 2434 004c 20000000 		.4byte	.LFE9
 2435 0050 00000000 		.4byte	.LFB10
 2436 0054 3C000000 		.4byte	.LFE10
ARM GAS  D:\Windows\AppData\Local\Temp\ccLjcK0k.s 			page 64


 2437 0058 00000000 		.4byte	.LFB11
 2438 005c 20000000 		.4byte	.LFE11
 2439 0060 00000000 		.4byte	.LFB12
 2440 0064 10010000 		.4byte	.LFE12
 2441 0068 00000000 		.4byte	.LFB13
 2442 006c 20000000 		.4byte	.LFE13
 2443 0070 00000000 		.4byte	.LFB14
 2444 0074 30000000 		.4byte	.LFE14
 2445 0078 00000000 		.4byte	.LFB15
 2446 007c 6C000000 		.4byte	.LFE15
 2447 0080 00000000 		.4byte	.LFB16
 2448 0084 28000000 		.4byte	.LFE16
 2449 0088 00000000 		.4byte	.LFB17
 2450 008c 7C000000 		.4byte	.LFE17
 2451 0090 00000000 		.4byte	.LFB18
 2452 0094 38000000 		.4byte	.LFE18
 2453 0098 00000000 		.4byte	.LFB19
 2454 009c 5C000000 		.4byte	.LFE19
 2455 00a0 00000000 		.4byte	.LFB20
 2456 00a4 0E000000 		.4byte	.LFE20
 2457 00a8 00000000 		.4byte	.LFB21
 2458 00ac 0E000000 		.4byte	.LFE21
 2459 00b0 00000000 		.4byte	.LFB22
 2460 00b4 30000000 		.4byte	.LFE22
 2461 00b8 00000000 		.4byte	.LFB23
 2462 00bc 70000000 		.4byte	.LFE23
 2463 00c0 00000000 		.4byte	0
 2464 00c4 00000000 		.4byte	0
 2465              		.section	.debug_line,"",%progbits
 2466              	.Ldebug_line0:
 2467 0000 8B020000 		.section	.debug_str,"MS",%progbits,1
 2467      02004500 
 2467      00000201 
 2467      FB0E0D00 
 2467      01010101 
 2468              	.LASF21:
 2469 0000 656E6162 		.ascii	"enableInterrupts\000"
 2469      6C65496E 
 2469      74657272 
 2469      75707473 
 2469      00
 2470              	.LASF24:
 2471 0011 78626565 		.ascii	"xbee_spi_DisableTxInt\000"
 2471      5F737069 
 2471      5F446973 
 2471      61626C65 
 2471      5478496E 
 2472              	.LASF15:
 2473 0027 72656733 		.ascii	"reg32\000"
 2473      3200
 2474              	.LASF22:
 2475 002d 78626565 		.ascii	"xbee_spi_EnableTxInt\000"
 2475      5F737069 
 2475      5F456E61 
 2475      626C6554 
 2475      78496E74 
 2476              	.LASF31:
ARM GAS  D:\Windows\AppData\Local\Temp\ccLjcK0k.s 			page 65


 2477 0042 78626565 		.ascii	"xbee_spi_ReadRxStatus\000"
 2477      5F737069 
 2477      5F526561 
 2477      64527853 
 2477      74617475 
 2478              	.LASF40:
 2479 0058 78626565 		.ascii	"xbee_spi_GetTxBufferSize\000"
 2479      5F737069 
 2479      5F476574 
 2479      54784275 
 2479      66666572 
 2480              	.LASF33:
 2481 0071 74784461 		.ascii	"txData\000"
 2481      746100
 2482              	.LASF38:
 2483 0078 78626565 		.ascii	"xbee_spi_GetRxBufferSize\000"
 2483      5F737069 
 2483      5F476574 
 2483      52784275 
 2483      66666572 
 2484              	.LASF3:
 2485 0091 73686F72 		.ascii	"short unsigned int\000"
 2485      7420756E 
 2485      7369676E 
 2485      65642069 
 2485      6E7400
 2486              	.LASF41:
 2487 00a4 78626565 		.ascii	"xbee_spi_ClearRxBuffer\000"
 2487      5F737069 
 2487      5F436C65 
 2487      61725278 
 2487      42756666 
 2488              	.LASF61:
 2489 00bb 443A5C44 		.ascii	"D:\\Downloads\\FRUCD\\Node-Beaver\\Node-Beaver\\Nod"
 2489      6F776E6C 
 2489      6F616473 
 2489      5C465255 
 2489      43445C4E 
 2490 00e9 652D4265 		.ascii	"e-Beaver.cydsn\000"
 2490      61766572 
 2490      2E637964 
 2490      736E00
 2491              	.LASF23:
 2492 00f8 78626565 		.ascii	"xbee_spi_EnableRxInt\000"
 2492      5F737069 
 2492      5F456E61 
 2492      626C6552 
 2492      78496E74 
 2493              	.LASF52:
 2494 010d 78626565 		.ascii	"xbee_spi_initVar\000"
 2494      5F737069 
 2494      5F696E69 
 2494      74566172 
 2494      00
 2495              	.LASF37:
 2496 011e 72784461 		.ascii	"rxData\000"
 2496      746100
ARM GAS  D:\Windows\AppData\Local\Temp\ccLjcK0k.s 			page 66


 2497              	.LASF11:
 2498 0125 666C6F61 		.ascii	"float\000"
 2498      7400
 2499              	.LASF48:
 2500 012b 78626565 		.ascii	"xbee_spi_EnableInt\000"
 2500      5F737069 
 2500      5F456E61 
 2500      626C6549 
 2500      6E7400
 2501              	.LASF39:
 2502 013e 73697A65 		.ascii	"size\000"
 2502      00
 2503              	.LASF14:
 2504 0143 72656738 		.ascii	"reg8\000"
 2504      00
 2505              	.LASF54:
 2506 0148 78626565 		.ascii	"xbee_spi_swStatusRx\000"
 2506      5F737069 
 2506      5F737753 
 2506      74617475 
 2506      73527800 
 2507              	.LASF5:
 2508 015c 6C6F6E67 		.ascii	"long unsigned int\000"
 2508      20756E73 
 2508      69676E65 
 2508      6420696E 
 2508      7400
 2509              	.LASF50:
 2510 016e 78626565 		.ascii	"xbee_spi_SetInterruptMode\000"
 2510      5F737069 
 2510      5F536574 
 2510      496E7465 
 2510      72727570 
 2511              	.LASF9:
 2512 0188 75696E74 		.ascii	"uint8\000"
 2512      3800
 2513              	.LASF55:
 2514 018e 78626565 		.ascii	"xbee_spi_txBuffer\000"
 2514      5F737069 
 2514      5F747842 
 2514      75666665 
 2514      7200
 2515              	.LASF18:
 2516 01a0 78626565 		.ascii	"xbee_spi_Start\000"
 2516      5F737069 
 2516      5F537461 
 2516      727400
 2517              	.LASF49:
 2518 01af 78626565 		.ascii	"xbee_spi_DisableInt\000"
 2518      5F737069 
 2518      5F446973 
 2518      61626C65 
 2518      496E7400 
 2519              	.LASF45:
 2520 01c3 62797465 		.ascii	"byteCount\000"
 2520      436F756E 
 2520      7400
ARM GAS  D:\Windows\AppData\Local\Temp\ccLjcK0k.s 			page 67


 2521              	.LASF51:
 2522 01cd 78626565 		.ascii	"xbee_spi_ReadStatus\000"
 2522      5F737069 
 2522      5F526561 
 2522      64537461 
 2522      74757300 
 2523              	.LASF1:
 2524 01e1 756E7369 		.ascii	"unsigned char\000"
 2524      676E6564 
 2524      20636861 
 2524      7200
 2525              	.LASF19:
 2526 01ef 78626565 		.ascii	"xbee_spi_Enable\000"
 2526      5F737069 
 2526      5F456E61 
 2526      626C6500 
 2527              	.LASF59:
 2528 01ff 474E5520 		.ascii	"GNU C 4.9.3 20150303 (release) [ARM/embedded-4_9-br"
 2528      4320342E 
 2528      392E3320 
 2528      32303135 
 2528      30333033 
 2529 0232 616E6368 		.ascii	"anch revision 221220] -mcpu=cortex-m3 -mthumb -g -O"
 2529      20726576 
 2529      6973696F 
 2529      6E203232 
 2529      31323230 
 2530 0265 30202D66 		.ascii	"0 -ffunction-sections -ffat-lto-objects\000"
 2530      66756E63 
 2530      74696F6E 
 2530      2D736563 
 2530      74696F6E 
 2531              	.LASF12:
 2532 028d 646F7562 		.ascii	"double\000"
 2532      6C6500
 2533              	.LASF17:
 2534 0294 78626565 		.ascii	"xbee_spi_Init\000"
 2534      5F737069 
 2534      5F496E69 
 2534      7400
 2535              	.LASF28:
 2536 02a2 696E7453 		.ascii	"intSrc\000"
 2536      726300
 2537              	.LASF2:
 2538 02a9 73686F72 		.ascii	"short int\000"
 2538      7420696E 
 2538      7400
 2539              	.LASF60:
 2540 02b3 47656E65 		.ascii	"Generated_Source\\PSoC5\\xbee_spi.c\000"
 2540      72617465 
 2540      645F536F 
 2540      75726365 
 2540      5C50536F 
 2541              	.LASF25:
 2542 02d5 78626565 		.ascii	"xbee_spi_DisableRxInt\000"
 2542      5F737069 
 2542      5F446973 
ARM GAS  D:\Windows\AppData\Local\Temp\ccLjcK0k.s 			page 68


 2542      61626C65 
 2542      5278496E 
 2543              	.LASF10:
 2544 02eb 75696E74 		.ascii	"uint32\000"
 2544      333200
 2545              	.LASF8:
 2546 02f2 756E7369 		.ascii	"unsigned int\000"
 2546      676E6564 
 2546      20696E74 
 2546      00
 2547              	.LASF47:
 2548 02ff 78626565 		.ascii	"xbee_spi_ClearFIFO\000"
 2548      5F737069 
 2548      5F436C65 
 2548      61724649 
 2548      464F00
 2549              	.LASF7:
 2550 0312 6C6F6E67 		.ascii	"long long unsigned int\000"
 2550      206C6F6E 
 2550      6720756E 
 2550      7369676E 
 2550      65642069 
 2551              	.LASF46:
 2552 0329 62756649 		.ascii	"bufIndex\000"
 2552      6E646578 
 2552      00
 2553              	.LASF35:
 2554 0332 746D7054 		.ascii	"tmpTxBufferRead\000"
 2554      78427566 
 2554      66657252 
 2554      65616400 
 2555              	.LASF26:
 2556 0342 78626565 		.ascii	"xbee_spi_SetTxInterruptMode\000"
 2556      5F737069 
 2556      5F536574 
 2556      5478496E 
 2556      74657272 
 2557              	.LASF27:
 2558 035e 78626565 		.ascii	"xbee_spi_SetRxInterruptMode\000"
 2558      5F737069 
 2558      5F536574 
 2558      5278496E 
 2558      74657272 
 2559              	.LASF6:
 2560 037a 6C6F6E67 		.ascii	"long long int\000"
 2560      206C6F6E 
 2560      6720696E 
 2560      7400
 2561              	.LASF16:
 2562 0388 73697A65 		.ascii	"sizetype\000"
 2562      74797065 
 2562      00
 2563              	.LASF53:
 2564 0391 78626565 		.ascii	"xbee_spi_swStatusTx\000"
 2564      5F737069 
 2564      5F737753 
 2564      74617475 
ARM GAS  D:\Windows\AppData\Local\Temp\ccLjcK0k.s 			page 69


 2564      73547800 
 2565              	.LASF13:
 2566 03a5 63686172 		.ascii	"char\000"
 2566      00
 2567              	.LASF36:
 2568 03aa 78626565 		.ascii	"xbee_spi_ReadRxData\000"
 2568      5F737069 
 2568      5F526561 
 2568      64527844 
 2568      61746100 
 2569              	.LASF58:
 2570 03be 78626565 		.ascii	"xbee_spi_txBufferFull\000"
 2570      5F737069 
 2570      5F747842 
 2570      75666665 
 2570      7246756C 
 2571              	.LASF34:
 2572 03d4 74656D70 		.ascii	"tempStatus\000"
 2572      53746174 
 2572      757300
 2573              	.LASF20:
 2574 03df 78626565 		.ascii	"xbee_spi_Stop\000"
 2574      5F737069 
 2574      5F53746F 
 2574      7000
 2575              	.LASF42:
 2576 03ed 78626565 		.ascii	"xbee_spi_ClearTxBuffer\000"
 2576      5F737069 
 2576      5F436C65 
 2576      61725478 
 2576      42756666 
 2577              	.LASF44:
 2578 0404 62756666 		.ascii	"buffer\000"
 2578      657200
 2579              	.LASF43:
 2580 040b 78626565 		.ascii	"xbee_spi_PutArray\000"
 2580      5F737069 
 2580      5F507574 
 2580      41727261 
 2580      7900
 2581              	.LASF57:
 2582 041d 78626565 		.ascii	"xbee_spi_txBufferWrite\000"
 2582      5F737069 
 2582      5F747842 
 2582      75666665 
 2582      72577269 
 2583              	.LASF4:
 2584 0434 6C6F6E67 		.ascii	"long int\000"
 2584      20696E74 
 2584      00
 2585              	.LASF29:
 2586 043d 746D7053 		.ascii	"tmpStatus\000"
 2586      74617475 
 2586      7300
 2587              	.LASF30:
 2588 0447 78626565 		.ascii	"xbee_spi_ReadTxStatus\000"
 2588      5F737069 
ARM GAS  D:\Windows\AppData\Local\Temp\ccLjcK0k.s 			page 70


 2588      5F526561 
 2588      64547853 
 2588      74617475 
 2589              	.LASF56:
 2590 045d 78626565 		.ascii	"xbee_spi_txBufferRead\000"
 2590      5F737069 
 2590      5F747842 
 2590      75666665 
 2590      72526561 
 2591              	.LASF0:
 2592 0473 7369676E 		.ascii	"signed char\000"
 2592      65642063 
 2592      68617200 
 2593              	.LASF32:
 2594 047f 78626565 		.ascii	"xbee_spi_WriteTxData\000"
 2594      5F737069 
 2594      5F577269 
 2594      74655478 
 2594      44617461 
 2595              		.ident	"GCC: (GNU Tools for ARM Embedded Processors) 4.9.3 20150303 (release) [ARM/embedded-4_9-br
